
Actividad4.elf:     file format elf32-avr

Sections:
Idx Name          Size      VMA       LMA       File off  Algn
  0 .data         0000000c  00800100  00002b8e  00002c22  2**0
                  CONTENTS, ALLOC, LOAD, DATA
  1 .text         00002b8e  00000000  00000000  00000094  2**1
                  CONTENTS, ALLOC, LOAD, READONLY, CODE
  2 .bss          00000372  0080010c  0080010c  00002c2e  2**0
                  ALLOC
  3 .comment      00000030  00000000  00000000  00002c2e  2**0
                  CONTENTS, READONLY
  4 .note.gnu.avr.deviceinfo 00000040  00000000  00000000  00002c60  2**2
                  CONTENTS, READONLY
  5 .debug_aranges 00000328  00000000  00000000  00002ca0  2**0
                  CONTENTS, READONLY, DEBUGGING
  6 .debug_info   00004722  00000000  00000000  00002fc8  2**0
                  CONTENTS, READONLY, DEBUGGING
  7 .debug_abbrev 0000147f  00000000  00000000  000076ea  2**0
                  CONTENTS, READONLY, DEBUGGING
  8 .debug_line   000020d4  00000000  00000000  00008b69  2**0
                  CONTENTS, READONLY, DEBUGGING
  9 .debug_frame  00000b00  00000000  00000000  0000ac40  2**2
                  CONTENTS, READONLY, DEBUGGING
 10 .debug_str    0000129a  00000000  00000000  0000b740  2**0
                  CONTENTS, READONLY, DEBUGGING
 11 .debug_loc    00002ce3  00000000  00000000  0000c9da  2**0
                  CONTENTS, READONLY, DEBUGGING
 12 .debug_ranges 00000310  00000000  00000000  0000f6bd  2**0
                  CONTENTS, READONLY, DEBUGGING

Disassembly of section .text:

00000000 <__vectors>:
       0:	0c 94 4f 00 	jmp	0x9e	; 0x9e <__ctors_end>
       4:	0c 94 6c 00 	jmp	0xd8	; 0xd8 <__bad_interrupt>
       8:	0c 94 6c 00 	jmp	0xd8	; 0xd8 <__bad_interrupt>
       c:	0c 94 6a 0e 	jmp	0x1cd4	; 0x1cd4 <__vector_3>
      10:	0c 94 6c 00 	jmp	0xd8	; 0xd8 <__bad_interrupt>
      14:	0c 94 6c 00 	jmp	0xd8	; 0xd8 <__bad_interrupt>
      18:	0c 94 6c 00 	jmp	0xd8	; 0xd8 <__bad_interrupt>
      1c:	0c 94 6c 00 	jmp	0xd8	; 0xd8 <__bad_interrupt>
      20:	0c 94 6c 00 	jmp	0xd8	; 0xd8 <__bad_interrupt>
      24:	0c 94 6c 00 	jmp	0xd8	; 0xd8 <__bad_interrupt>
      28:	0c 94 6c 00 	jmp	0xd8	; 0xd8 <__bad_interrupt>
      2c:	0c 94 30 0e 	jmp	0x1c60	; 0x1c60 <__vector_11>
      30:	0c 94 6c 00 	jmp	0xd8	; 0xd8 <__bad_interrupt>
      34:	0c 94 6c 00 	jmp	0xd8	; 0xd8 <__bad_interrupt>
      38:	0c 94 da 0d 	jmp	0x1bb4	; 0x1bb4 <__vector_14>
      3c:	0c 94 6c 00 	jmp	0xd8	; 0xd8 <__bad_interrupt>
      40:	0c 94 6c 00 	jmp	0xd8	; 0xd8 <__bad_interrupt>
      44:	0c 94 6c 00 	jmp	0xd8	; 0xd8 <__bad_interrupt>
      48:	0c 94 42 0e 	jmp	0x1c84	; 0x1c84 <__vector_18>
      4c:	0c 94 6c 00 	jmp	0xd8	; 0xd8 <__bad_interrupt>
      50:	0c 94 6c 00 	jmp	0xd8	; 0xd8 <__bad_interrupt>
      54:	0c 94 6c 00 	jmp	0xd8	; 0xd8 <__bad_interrupt>
      58:	0c 94 6c 00 	jmp	0xd8	; 0xd8 <__bad_interrupt>
      5c:	0c 94 6c 00 	jmp	0xd8	; 0xd8 <__bad_interrupt>
      60:	0c 94 6c 00 	jmp	0xd8	; 0xd8 <__bad_interrupt>
      64:	0c 94 6c 00 	jmp	0xd8	; 0xd8 <__bad_interrupt>
      68:	06 07       	cpc	r16, r22
      6a:	06 07       	cpc	r16, r22
      6c:	06 07       	cpc	r16, r22
      6e:	fd 06       	cpc	r15, r29
      70:	fd 06       	cpc	r15, r29
      72:	fd 06       	cpc	r15, r29
      74:	fd 06       	cpc	r15, r29
      76:	fd 06       	cpc	r15, r29
      78:	fd 06       	cpc	r15, r29
      7a:	fd 06       	cpc	r15, r29
      7c:	fd 06       	cpc	r15, r29
      7e:	fd 06       	cpc	r15, r29
      80:	fd 06       	cpc	r15, r29
      82:	fd 06       	cpc	r15, r29
      84:	fd 06       	cpc	r15, r29
      86:	74 06       	cpc	r7, r20
      88:	a2 06       	cpc	r10, r18
      8a:	e2 06       	cpc	r14, r18
      8c:	f4 06       	cpc	r15, r20
      8e:	09 06       	cpc	r0, r25
      90:	64 10       	cpse	r6, r4
      92:	6d 10       	cpse	r6, r13
      94:	7a 10       	cpse	r7, r10
      96:	87 10       	cpse	r8, r7
      98:	94 10       	cpse	r9, r4
      9a:	9f 10       	cpse	r9, r15
      9c:	ac 10       	cpse	r10, r12

0000009e <__ctors_end>:
      9e:	11 24       	eor	r1, r1
      a0:	1f be       	out	0x3f, r1	; 63
      a2:	cf ef       	ldi	r28, 0xFF	; 255
      a4:	d8 e0       	ldi	r29, 0x08	; 8
      a6:	de bf       	out	0x3e, r29	; 62
      a8:	cd bf       	out	0x3d, r28	; 61

000000aa <__do_copy_data>:
      aa:	11 e0       	ldi	r17, 0x01	; 1
      ac:	a0 e0       	ldi	r26, 0x00	; 0
      ae:	b1 e0       	ldi	r27, 0x01	; 1
      b0:	ee e8       	ldi	r30, 0x8E	; 142
      b2:	fb e2       	ldi	r31, 0x2B	; 43
      b4:	02 c0       	rjmp	.+4      	; 0xba <__do_copy_data+0x10>
      b6:	05 90       	lpm	r0, Z+
      b8:	0d 92       	st	X+, r0
      ba:	ac 30       	cpi	r26, 0x0C	; 12
      bc:	b1 07       	cpc	r27, r17
      be:	d9 f7       	brne	.-10     	; 0xb6 <__do_copy_data+0xc>

000000c0 <__do_clear_bss>:
      c0:	24 e0       	ldi	r18, 0x04	; 4
      c2:	ac e0       	ldi	r26, 0x0C	; 12
      c4:	b1 e0       	ldi	r27, 0x01	; 1
      c6:	01 c0       	rjmp	.+2      	; 0xca <.do_clear_bss_start>

000000c8 <.do_clear_bss_loop>:
      c8:	1d 92       	st	X+, r1

000000ca <.do_clear_bss_start>:
      ca:	ae 37       	cpi	r26, 0x7E	; 126
      cc:	b2 07       	cpc	r27, r18
      ce:	e1 f7       	brne	.-8      	; 0xc8 <.do_clear_bss_loop>
      d0:	0e 94 7f 0f 	call	0x1efe	; 0x1efe <main>
      d4:	0c 94 c5 15 	jmp	0x2b8a	; 0x2b8a <_exit>

000000d8 <__bad_interrupt>:
      d8:	0c 94 00 00 	jmp	0	; 0x0 <__vectors>

000000dc <Clasificador_IdentificarCaja>:

/**
 * @brief Evalúa geométricamente el promedio y decide el tamańo de la caja.
 * Recuerda: Menor distancia al techo -> Caja más alta (Grande).
 */
static Clasificador_TipoCaja_t Clasificador_IdentificarCaja(Clasificador_Ctrl_t *ctx, float promedio_mm) {
      dc:	4f 92       	push	r4
      de:	5f 92       	push	r5
      e0:	6f 92       	push	r6
      e2:	7f 92       	push	r7
      e4:	8f 92       	push	r8
      e6:	9f 92       	push	r9
      e8:	af 92       	push	r10
      ea:	bf 92       	push	r11
      ec:	cf 92       	push	r12
      ee:	df 92       	push	r13
      f0:	ef 92       	push	r14
      f2:	ff 92       	push	r15
      f4:	cf 93       	push	r28
      f6:	df 93       	push	r29
      f8:	ec 01       	movw	r28, r24
      fa:	6a 01       	movw	r12, r20
      fc:	7b 01       	movw	r14, r22
	Clasificador_ConfigCajas_t *cfg = &ctx->config_cajas;

	// Validación preliminar: Si el promedio está muy cerca del piso (con su tolerancia),
	// significa que fue un falso disparo o el haz se cortó sin una caja real en la base.
	if (promedio_mm >= (cfg->distancia_piso_mm - cfg->tolerancia_mm)) {
      fe:	69 81       	ldd	r22, Y+1	; 0x01
     100:	7a 81       	ldd	r23, Y+2	; 0x02
     102:	8b 81       	ldd	r24, Y+3	; 0x03
     104:	9c 81       	ldd	r25, Y+4	; 0x04
     106:	89 88       	ldd	r8, Y+17	; 0x11
     108:	9a 88       	ldd	r9, Y+18	; 0x12
     10a:	ab 88       	ldd	r10, Y+19	; 0x13
     10c:	bc 88       	ldd	r11, Y+20	; 0x14
     10e:	a5 01       	movw	r20, r10
     110:	94 01       	movw	r18, r8
     112:	0e 94 fe 12 	call	0x25fc	; 0x25fc <__subsf3>
     116:	a7 01       	movw	r20, r14
     118:	96 01       	movw	r18, r12
     11a:	0e 94 6b 13 	call	0x26d6	; 0x26d6 <__cmpsf2>
     11e:	18 16       	cp	r1, r24
     120:	0c f0       	brlt	.+2      	; 0x124 <Clasificador_IdentificarCaja+0x48>
     122:	63 c0       	rjmp	.+198    	; 0x1ea <Clasificador_IdentificarCaja+0x10e>
		return CAJA_NINGUNA;
	}

	// Evaluamos la Caja Grande (10cm de altura -> aprox 80mm al sensor)
	if (promedio_mm >= (cfg->umbral_grande_mm - cfg->tolerancia_mm) &&
     124:	4d 84       	ldd	r4, Y+13	; 0x0d
     126:	5e 84       	ldd	r5, Y+14	; 0x0e
     128:	6f 84       	ldd	r6, Y+15	; 0x0f
     12a:	78 88       	ldd	r7, Y+16	; 0x10
     12c:	a5 01       	movw	r20, r10
     12e:	94 01       	movw	r18, r8
     130:	c3 01       	movw	r24, r6
     132:	b2 01       	movw	r22, r4
     134:	0e 94 fe 12 	call	0x25fc	; 0x25fc <__subsf3>
     138:	9b 01       	movw	r18, r22
     13a:	ac 01       	movw	r20, r24
     13c:	c7 01       	movw	r24, r14
     13e:	b6 01       	movw	r22, r12
     140:	0e 94 ca 14 	call	0x2994	; 0x2994 <__gesf2>
     144:	88 23       	and	r24, r24
     146:	7c f0       	brlt	.+30     	; 0x166 <Clasificador_IdentificarCaja+0x8a>
		promedio_mm <= (cfg->umbral_grande_mm + cfg->tolerancia_mm)) {
     148:	a3 01       	movw	r20, r6
     14a:	92 01       	movw	r18, r4
     14c:	c5 01       	movw	r24, r10
     14e:	b4 01       	movw	r22, r8
     150:	0e 94 ff 12 	call	0x25fe	; 0x25fe <__addsf3>
     154:	9b 01       	movw	r18, r22
     156:	ac 01       	movw	r20, r24
	if (promedio_mm >= (cfg->distancia_piso_mm - cfg->tolerancia_mm)) {
		return CAJA_NINGUNA;
	}

	// Evaluamos la Caja Grande (10cm de altura -> aprox 80mm al sensor)
	if (promedio_mm >= (cfg->umbral_grande_mm - cfg->tolerancia_mm) &&
     158:	c7 01       	movw	r24, r14
     15a:	b6 01       	movw	r22, r12
     15c:	0e 94 6b 13 	call	0x26d6	; 0x26d6 <__cmpsf2>
     160:	18 16       	cp	r1, r24
     162:	0c f0       	brlt	.+2      	; 0x166 <Clasificador_IdentificarCaja+0x8a>
     164:	44 c0       	rjmp	.+136    	; 0x1ee <Clasificador_IdentificarCaja+0x112>
		promedio_mm <= (cfg->umbral_grande_mm + cfg->tolerancia_mm)) {
		return CAJA_GRANDE;
	}

	// Evaluamos la Caja Mediana (8cm de altura -> aprox 100mm al sensor)
	if (promedio_mm >= (cfg->umbral_mediana_mm - cfg->tolerancia_mm) &&
     166:	49 84       	ldd	r4, Y+9	; 0x09
     168:	5a 84       	ldd	r5, Y+10	; 0x0a
     16a:	6b 84       	ldd	r6, Y+11	; 0x0b
     16c:	7c 84       	ldd	r7, Y+12	; 0x0c
     16e:	a5 01       	movw	r20, r10
     170:	94 01       	movw	r18, r8
     172:	c3 01       	movw	r24, r6
     174:	b2 01       	movw	r22, r4
     176:	0e 94 fe 12 	call	0x25fc	; 0x25fc <__subsf3>
     17a:	9b 01       	movw	r18, r22
     17c:	ac 01       	movw	r20, r24
     17e:	c7 01       	movw	r24, r14
     180:	b6 01       	movw	r22, r12
     182:	0e 94 ca 14 	call	0x2994	; 0x2994 <__gesf2>
     186:	88 23       	and	r24, r24
     188:	74 f0       	brlt	.+28     	; 0x1a6 <Clasificador_IdentificarCaja+0xca>
		promedio_mm <= (cfg->umbral_mediana_mm + cfg->tolerancia_mm)) {
     18a:	a3 01       	movw	r20, r6
     18c:	92 01       	movw	r18, r4
     18e:	c5 01       	movw	r24, r10
     190:	b4 01       	movw	r22, r8
     192:	0e 94 ff 12 	call	0x25fe	; 0x25fe <__addsf3>
     196:	9b 01       	movw	r18, r22
     198:	ac 01       	movw	r20, r24
		promedio_mm <= (cfg->umbral_grande_mm + cfg->tolerancia_mm)) {
		return CAJA_GRANDE;
	}

	// Evaluamos la Caja Mediana (8cm de altura -> aprox 100mm al sensor)
	if (promedio_mm >= (cfg->umbral_mediana_mm - cfg->tolerancia_mm) &&
     19a:	c7 01       	movw	r24, r14
     19c:	b6 01       	movw	r22, r12
     19e:	0e 94 6b 13 	call	0x26d6	; 0x26d6 <__cmpsf2>
     1a2:	18 16       	cp	r1, r24
     1a4:	34 f5       	brge	.+76     	; 0x1f2 <Clasificador_IdentificarCaja+0x116>
		promedio_mm <= (cfg->umbral_mediana_mm + cfg->tolerancia_mm)) {
		return CAJA_MEDIANA;
	}

	// Evaluamos la Caja Chica (6cm de altura -> aprox 120mm al sensor)
	if (promedio_mm >= (cfg->umbral_chica_mm - cfg->tolerancia_mm) &&
     1a6:	4d 80       	ldd	r4, Y+5	; 0x05
     1a8:	5e 80       	ldd	r5, Y+6	; 0x06
     1aa:	6f 80       	ldd	r6, Y+7	; 0x07
     1ac:	78 84       	ldd	r7, Y+8	; 0x08
     1ae:	a5 01       	movw	r20, r10
     1b0:	94 01       	movw	r18, r8
     1b2:	c3 01       	movw	r24, r6
     1b4:	b2 01       	movw	r22, r4
     1b6:	0e 94 fe 12 	call	0x25fc	; 0x25fc <__subsf3>
     1ba:	9b 01       	movw	r18, r22
     1bc:	ac 01       	movw	r20, r24
     1be:	c7 01       	movw	r24, r14
     1c0:	b6 01       	movw	r22, r12
     1c2:	0e 94 ca 14 	call	0x2994	; 0x2994 <__gesf2>
     1c6:	88 23       	and	r24, r24
     1c8:	b4 f0       	brlt	.+44     	; 0x1f6 <Clasificador_IdentificarCaja+0x11a>
		promedio_mm <= (cfg->umbral_chica_mm + cfg->tolerancia_mm)) {
     1ca:	a3 01       	movw	r20, r6
     1cc:	92 01       	movw	r18, r4
     1ce:	c5 01       	movw	r24, r10
     1d0:	b4 01       	movw	r22, r8
     1d2:	0e 94 ff 12 	call	0x25fe	; 0x25fe <__addsf3>
     1d6:	9b 01       	movw	r18, r22
     1d8:	ac 01       	movw	r20, r24
		promedio_mm <= (cfg->umbral_mediana_mm + cfg->tolerancia_mm)) {
		return CAJA_MEDIANA;
	}

	// Evaluamos la Caja Chica (6cm de altura -> aprox 120mm al sensor)
	if (promedio_mm >= (cfg->umbral_chica_mm - cfg->tolerancia_mm) &&
     1da:	c7 01       	movw	r24, r14
     1dc:	b6 01       	movw	r22, r12
     1de:	0e 94 6b 13 	call	0x26d6	; 0x26d6 <__cmpsf2>
     1e2:	18 16       	cp	r1, r24
     1e4:	54 f4       	brge	.+20     	; 0x1fa <Clasificador_IdentificarCaja+0x11e>
		promedio_mm <= (cfg->umbral_chica_mm + cfg->tolerancia_mm)) {
		return CAJA_CHICA;
	}

	// Si cayó fuera de los tres rangos configurados con su tolerancia
	return CAJA_DESCONOCIDA; // <--- ANTES DECÍA CAJA_NINGUNA
     1e6:	84 e0       	ldi	r24, 0x04	; 4
     1e8:	09 c0       	rjmp	.+18     	; 0x1fc <Clasificador_IdentificarCaja+0x120>
	Clasificador_ConfigCajas_t *cfg = &ctx->config_cajas;

	// Validación preliminar: Si el promedio está muy cerca del piso (con su tolerancia),
	// significa que fue un falso disparo o el haz se cortó sin una caja real en la base.
	if (promedio_mm >= (cfg->distancia_piso_mm - cfg->tolerancia_mm)) {
		return CAJA_NINGUNA;
     1ea:	80 e0       	ldi	r24, 0x00	; 0
     1ec:	07 c0       	rjmp	.+14     	; 0x1fc <Clasificador_IdentificarCaja+0x120>
	}

	// Evaluamos la Caja Grande (10cm de altura -> aprox 80mm al sensor)
	if (promedio_mm >= (cfg->umbral_grande_mm - cfg->tolerancia_mm) &&
		promedio_mm <= (cfg->umbral_grande_mm + cfg->tolerancia_mm)) {
		return CAJA_GRANDE;
     1ee:	83 e0       	ldi	r24, 0x03	; 3
     1f0:	05 c0       	rjmp	.+10     	; 0x1fc <Clasificador_IdentificarCaja+0x120>
	}

	// Evaluamos la Caja Mediana (8cm de altura -> aprox 100mm al sensor)
	if (promedio_mm >= (cfg->umbral_mediana_mm - cfg->tolerancia_mm) &&
		promedio_mm <= (cfg->umbral_mediana_mm + cfg->tolerancia_mm)) {
		return CAJA_MEDIANA;
     1f2:	82 e0       	ldi	r24, 0x02	; 2
     1f4:	03 c0       	rjmp	.+6      	; 0x1fc <Clasificador_IdentificarCaja+0x120>
		promedio_mm <= (cfg->umbral_chica_mm + cfg->tolerancia_mm)) {
		return CAJA_CHICA;
	}

	// Si cayó fuera de los tres rangos configurados con su tolerancia
	return CAJA_DESCONOCIDA; // <--- ANTES DECÍA CAJA_NINGUNA
     1f6:	84 e0       	ldi	r24, 0x04	; 4
     1f8:	01 c0       	rjmp	.+2      	; 0x1fc <Clasificador_IdentificarCaja+0x120>
	}

	// Evaluamos la Caja Chica (6cm de altura -> aprox 120mm al sensor)
	if (promedio_mm >= (cfg->umbral_chica_mm - cfg->tolerancia_mm) &&
		promedio_mm <= (cfg->umbral_chica_mm + cfg->tolerancia_mm)) {
		return CAJA_CHICA;
     1fa:	81 e0       	ldi	r24, 0x01	; 1
	}

	// Si cayó fuera de los tres rangos configurados con su tolerancia
	return CAJA_DESCONOCIDA; // <--- ANTES DECÍA CAJA_NINGUNA
}
     1fc:	df 91       	pop	r29
     1fe:	cf 91       	pop	r28
     200:	ff 90       	pop	r15
     202:	ef 90       	pop	r14
     204:	df 90       	pop	r13
     206:	cf 90       	pop	r12
     208:	bf 90       	pop	r11
     20a:	af 90       	pop	r10
     20c:	9f 90       	pop	r9
     20e:	8f 90       	pop	r8
     210:	7f 90       	pop	r7
     212:	6f 90       	pop	r6
     214:	5f 90       	pop	r5
     216:	4f 90       	pop	r4
     218:	08 95       	ret

0000021a <Clasificador_PushFIFO>:

/**
 * @brief Inserta el tipo de caja detectado en la cola del eyector correspondiente.
 */
static void Clasificador_PushFIFO(Clasificador_Ctrl_t *ctx, Clasificador_TipoCaja_t caja_detectada) {
     21a:	ac 01       	movw	r20, r24
	if (caja_detectada == CAJA_NINGUNA) return;
     21c:	66 23       	and	r22, r22
     21e:	39 f1       	breq	.+78     	; 0x26e <Clasificador_PushFIFO+0x54>
     220:	90 e0       	ldi	r25, 0x00	; 0
     222:	23 c0       	rjmp	.+70     	; 0x26a <Clasificador_PushFIFO+0x50>

	// FIX: Metemos la caja en la cola de LOS 3 BRAZOS
	// para que la memoria de todos mantenga el mismo orden físico que la cinta.
	for (uint8_t i = 0; i < 3; i++) {
		Clasificador_Eyector_t *b = &ctx->eyectores[i];
     224:	29 2f       	mov	r18, r25
     226:	30 e0       	ldi	r19, 0x00	; 0

		if (b->fifo_count < CLASIFICADOR_FIFO_CAPACITY) {
     228:	8d e1       	ldi	r24, 0x1D	; 29
     22a:	82 9f       	mul	r24, r18
     22c:	f0 01       	movw	r30, r0
     22e:	83 9f       	mul	r24, r19
     230:	f0 0d       	add	r31, r0
     232:	11 24       	eor	r1, r1
     234:	e4 0f       	add	r30, r20
     236:	f5 1f       	adc	r31, r21
     238:	84 a5       	ldd	r24, Z+44	; 0x2c
     23a:	80 31       	cpi	r24, 0x10	; 16
     23c:	a8 f4       	brcc	.+42     	; 0x268 <Clasificador_PushFIFO+0x4e>
			b->fifo_cola[b->fifo_head] = caja_detectada;
     23e:	8d e1       	ldi	r24, 0x1D	; 29
     240:	82 9f       	mul	r24, r18
     242:	f0 01       	movw	r30, r0
     244:	83 9f       	mul	r24, r19
     246:	f0 0d       	add	r31, r0
     248:	11 24       	eor	r1, r1
     24a:	e4 0f       	add	r30, r20
     24c:	f5 1f       	adc	r31, r21
     24e:	82 a5       	ldd	r24, Z+42	; 0x2a
     250:	df 01       	movw	r26, r30
     252:	a8 0f       	add	r26, r24
     254:	b1 1d       	adc	r27, r1
     256:	5a 96       	adiw	r26, 0x1a	; 26
     258:	6c 93       	st	X, r22
			b->fifo_head = (b->fifo_head + 1) & (CLASIFICADOR_FIFO_CAPACITY - 1);
     25a:	22 a5       	ldd	r18, Z+42	; 0x2a
     25c:	2f 5f       	subi	r18, 0xFF	; 255
     25e:	2f 70       	andi	r18, 0x0F	; 15
     260:	22 a7       	std	Z+42, r18	; 0x2a
			b->fifo_count++;
     262:	84 a5       	ldd	r24, Z+44	; 0x2c
     264:	8f 5f       	subi	r24, 0xFF	; 255
     266:	84 a7       	std	Z+44, r24	; 0x2c
static void Clasificador_PushFIFO(Clasificador_Ctrl_t *ctx, Clasificador_TipoCaja_t caja_detectada) {
	if (caja_detectada == CAJA_NINGUNA) return;

	// FIX: Metemos la caja en la cola de LOS 3 BRAZOS
	// para que la memoria de todos mantenga el mismo orden físico que la cinta.
	for (uint8_t i = 0; i < 3; i++) {
     268:	9f 5f       	subi	r25, 0xFF	; 255
     26a:	93 30       	cpi	r25, 0x03	; 3
     26c:	d8 f2       	brcs	.-74     	; 0x224 <Clasificador_PushFIFO+0xa>
     26e:	08 95       	ret

00000270 <Clasificador_PeekFIFO>:

/**
 * @brief Mira el elemento en el frente de la cola de un eyector sin removerlo.
 */
static Clasificador_TipoCaja_t Clasificador_PeekFIFO(Clasificador_Eyector_t *b) {
	if (b->fifo_count == 0U) {
     270:	fc 01       	movw	r30, r24
     272:	27 89       	ldd	r18, Z+23	; 0x17
     274:	22 23       	and	r18, r18
     276:	29 f0       	breq	.+10     	; 0x282 <Clasificador_PeekFIFO+0x12>
		return CAJA_NINGUNA;
	}
	return b->fifo_cola[b->fifo_tail];
     278:	26 89       	ldd	r18, Z+22	; 0x16
     27a:	e2 0f       	add	r30, r18
     27c:	f1 1d       	adc	r31, r1
     27e:	85 81       	ldd	r24, Z+5	; 0x05
     280:	08 95       	ret
/**
 * @brief Mira el elemento en el frente de la cola de un eyector sin removerlo.
 */
static Clasificador_TipoCaja_t Clasificador_PeekFIFO(Clasificador_Eyector_t *b) {
	if (b->fifo_count == 0U) {
		return CAJA_NINGUNA;
     282:	80 e0       	ldi	r24, 0x00	; 0
	}
	return b->fifo_cola[b->fifo_tail];
}
     284:	08 95       	ret

00000286 <Clasificador_PopFIFO>:

/**
 * @brief Remueve el elemento del frente de la cola (Pop).
 */
static void Clasificador_PopFIFO(Clasificador_Eyector_t *b) {
     286:	fc 01       	movw	r30, r24
	if (b->fifo_count == 0U) return;
     288:	97 89       	ldd	r25, Z+23	; 0x17
     28a:	99 23       	and	r25, r25
     28c:	59 f0       	breq	.+22     	; 0x2a4 <Clasificador_PopFIFO+0x1e>
	
	b->fifo_cola[b->fifo_tail] = CAJA_NINGUNA;
     28e:	86 89       	ldd	r24, Z+22	; 0x16
     290:	df 01       	movw	r26, r30
     292:	a8 0f       	add	r26, r24
     294:	b1 1d       	adc	r27, r1
     296:	15 96       	adiw	r26, 0x05	; 5
     298:	1c 92       	st	X, r1
	b->fifo_tail = (b->fifo_tail + 1) & (CLASIFICADOR_FIFO_CAPACITY - 1);
     29a:	8f 5f       	subi	r24, 0xFF	; 255
     29c:	8f 70       	andi	r24, 0x0F	; 15
     29e:	86 8b       	std	Z+22, r24	; 0x16
	b->fifo_count--;
     2a0:	91 50       	subi	r25, 0x01	; 1
     2a2:	97 8b       	std	Z+23, r25	; 0x17
     2a4:	08 95       	ret

000002a6 <Clasificador_ProcesarResultadoMedicion>:
}

/**
 * @brief Función coordinadora intermedia que conecta la ráfaga con la decisión
 */
static void Clasificador_ProcesarResultadoMedicion(Clasificador_Ctrl_t *ctx, float promedio_mm) {
     2a6:	0f 93       	push	r16
     2a8:	1f 93       	push	r17
     2aa:	cf 93       	push	r28
     2ac:	8c 01       	movw	r16, r24
	Clasificador_TipoCaja_t tipo = Clasificador_IdentificarCaja(ctx, promedio_mm);
     2ae:	0e 94 6e 00 	call	0xdc	; 0xdc <Clasificador_IdentificarCaja>
     2b2:	c8 2f       	mov	r28, r24
	
	if (tipo != CAJA_NINGUNA) {
     2b4:	88 23       	and	r24, r24
     2b6:	89 f0       	breq	.+34     	; 0x2da <Clasificador_ProcesarResultadoMedicion+0x34>
		
		if (mi_modo_ciego.activo) {
     2b8:	80 91 c8 01 	lds	r24, 0x01C8	; 0x8001c8 <mi_modo_ciego>
     2bc:	88 23       	and	r24, r24
     2be:	31 f0       	breq	.+12     	; 0x2cc <Clasificador_ProcesarResultadoMedicion+0x26>
			Ciego_AsignarTipoCajaActual(&mi_modo_ciego, tipo);
     2c0:	6c 2f       	mov	r22, r28
     2c2:	88 ec       	ldi	r24, 0xC8	; 200
     2c4:	91 e0       	ldi	r25, 0x01	; 1
     2c6:	0e 94 da 08 	call	0x11b4	; 0x11b4 <Ciego_AsignarTipoCajaActual>
     2ca:	07 c0       	rjmp	.+14     	; 0x2da <Clasificador_ProcesarResultadoMedicion+0x34>
			} else {
			Tracker_NuevaCaja(tipo);
     2cc:	8c 2f       	mov	r24, r28
     2ce:	0e 94 e1 11 	call	0x23c2	; 0x23c2 <Tracker_NuevaCaja>
			
			// FIX: Ahora SI metemos TODAS las cajas físicas en la FIFO,
			// incluso las CAJA_DESCONOCIDA, para que hagan bulto y sincronicen a los sensores
			Clasificador_PushFIFO(ctx, tipo);
     2d2:	6c 2f       	mov	r22, r28
     2d4:	c8 01       	movw	r24, r16
     2d6:	0e 94 0d 01 	call	0x21a	; 0x21a <Clasificador_PushFIFO>
		}
	}
}
     2da:	cf 91       	pop	r28
     2dc:	1f 91       	pop	r17
     2de:	0f 91       	pop	r16
     2e0:	08 95       	ret

000002e2 <Clasificador_Init>:
// Declaramos los servos del main como externos para que la librería pueda interactuar con ellos
extern SG90_t servo1;
extern SG90_t servo2;
extern SG90_t servo3;

void Clasificador_Init(Clasificador_Ctrl_t *ctx, float distancia_piso_mm) {
     2e2:	ef 92       	push	r14
     2e4:	ff 92       	push	r15
     2e6:	0f 93       	push	r16
     2e8:	1f 93       	push	r17
     2ea:	cf 93       	push	r28
     2ec:	df 93       	push	r29
	if (ctx == (void*)0) return;
     2ee:	00 97       	sbiw	r24, 0x00	; 0
     2f0:	09 f4       	brne	.+2      	; 0x2f4 <Clasificador_Init+0x12>
     2f2:	80 c0       	rjmp	.+256    	; 0x3f4 <Clasificador_Init+0x112>
     2f4:	17 2f       	mov	r17, r23
     2f6:	06 2f       	mov	r16, r22
     2f8:	f5 2e       	mov	r15, r21
     2fa:	e4 2e       	mov	r14, r20
     2fc:	ec 01       	movw	r28, r24

	// 1. Inicializar la Máquina de Estados General en APAGADO (Espera comando USART)
	ctx->estado_master = ESTADO_APAGADO;
     2fe:	18 82       	st	Y, r1
	ctx->suma_distancias_mm = 0UL;
     300:	fc 01       	movw	r30, r24
     302:	e4 59       	subi	r30, 0x94	; 148
     304:	ff 4f       	sbci	r31, 0xFF	; 255
     306:	10 82       	st	Z, r1
     308:	11 82       	std	Z+1, r1	; 0x01
     30a:	12 82       	std	Z+2, r1	; 0x02
     30c:	13 82       	std	Z+3, r1	; 0x03
	ctx->cantidad_muestras = 0UL;
     30e:	34 96       	adiw	r30, 0x04	; 4
     310:	10 82       	st	Z, r1
     312:	11 82       	std	Z+1, r1	; 0x01
     314:	12 82       	std	Z+2, r1	; 0x02
     316:	13 82       	std	Z+3, r1	; 0x03

	// 2. Cargar la configuración geométrica
	// Si el usuario pasa un valor válido (>0) para el piso lo usamos, sino el default
	ctx->config_cajas.distancia_piso_mm = (distancia_piso_mm > 0.0f) ? distancia_piso_mm : CLASIFICADOR_DEFAULT_PISO_MM;
     318:	20 e0       	ldi	r18, 0x00	; 0
     31a:	30 e0       	ldi	r19, 0x00	; 0
     31c:	a9 01       	movw	r20, r18
     31e:	6e 2d       	mov	r22, r14
     320:	7f 2d       	mov	r23, r15
     322:	80 2f       	mov	r24, r16
     324:	91 2f       	mov	r25, r17
     326:	0e 94 ca 14 	call	0x2994	; 0x2994 <__gesf2>
     32a:	18 16       	cp	r1, r24
     32c:	24 f0       	brlt	.+8      	; 0x336 <Clasificador_Init+0x54>
     32e:	e1 2c       	mov	r14, r1
     330:	f1 2c       	mov	r15, r1
     332:	04 e3       	ldi	r16, 0x34	; 52
     334:	13 e4       	ldi	r17, 0x43	; 67
     336:	8e 2d       	mov	r24, r14
     338:	9f 2d       	mov	r25, r15
     33a:	a0 2f       	mov	r26, r16
     33c:	b1 2f       	mov	r27, r17
     33e:	89 83       	std	Y+1, r24	; 0x01
     340:	9a 83       	std	Y+2, r25	; 0x02
     342:	ab 83       	std	Y+3, r26	; 0x03
     344:	bc 83       	std	Y+4, r27	; 0x04
	
	// Seteamos las distancias de las cajas usando los defaults calibrados desde el techo
	ctx->config_cajas.umbral_chica_mm   = CLASIFICADOR_DEFAULT_CHICA_MM;
     346:	80 e0       	ldi	r24, 0x00	; 0
     348:	90 e0       	ldi	r25, 0x00	; 0
     34a:	a0 ef       	ldi	r26, 0xF0	; 240
     34c:	b2 e4       	ldi	r27, 0x42	; 66
     34e:	8d 83       	std	Y+5, r24	; 0x05
     350:	9e 83       	std	Y+6, r25	; 0x06
     352:	af 83       	std	Y+7, r26	; 0x07
     354:	b8 87       	std	Y+8, r27	; 0x08
	ctx->config_cajas.umbral_mediana_mm = CLASIFICADOR_DEFAULT_MEDIANA_MM;
     356:	80 e0       	ldi	r24, 0x00	; 0
     358:	90 e0       	ldi	r25, 0x00	; 0
     35a:	a8 ec       	ldi	r26, 0xC8	; 200
     35c:	b2 e4       	ldi	r27, 0x42	; 66
     35e:	89 87       	std	Y+9, r24	; 0x09
     360:	9a 87       	std	Y+10, r25	; 0x0a
     362:	ab 87       	std	Y+11, r26	; 0x0b
     364:	bc 87       	std	Y+12, r27	; 0x0c
	ctx->config_cajas.umbral_grande_mm  = CLASIFICADOR_DEFAULT_GRANDE_MM;
     366:	80 e0       	ldi	r24, 0x00	; 0
     368:	90 e0       	ldi	r25, 0x00	; 0
     36a:	a0 ea       	ldi	r26, 0xA0	; 160
     36c:	b2 e4       	ldi	r27, 0x42	; 66
     36e:	8d 87       	std	Y+13, r24	; 0x0d
     370:	9e 87       	std	Y+14, r25	; 0x0e
     372:	af 87       	std	Y+15, r26	; 0x0f
     374:	b8 8b       	std	Y+16, r27	; 0x10
	ctx->config_cajas.tolerancia_mm     = CLASIFICADOR_DEFAULT_TOLERANCIA_MM;
     376:	80 e0       	ldi	r24, 0x00	; 0
     378:	90 e0       	ldi	r25, 0x00	; 0
     37a:	a0 e2       	ldi	r26, 0x20	; 32
     37c:	b1 e4       	ldi	r27, 0x41	; 65
     37e:	89 8b       	std	Y+17, r24	; 0x11
     380:	9a 8b       	std	Y+18, r25	; 0x12
     382:	ab 8b       	std	Y+19, r26	; 0x13
     384:	bc 8b       	std	Y+20, r27	; 0x14

	// 3. Inicializar y mapear los 3 módulos Eyectores independientes
	for (uint8_t i = 0; i < 3; i++) {
     386:	80 e0       	ldi	r24, 0x00	; 0
     388:	2b c0       	rjmp	.+86     	; 0x3e0 <Clasificador_Init+0xfe>
		ctx->eyectores[i].delay_post_deteccion_ms = CLASIFICADOR_DEFAULT_DELAY_MS;
     38a:	48 2f       	mov	r20, r24
     38c:	50 e0       	ldi	r21, 0x00	; 0
     38e:	9d e1       	ldi	r25, 0x1D	; 29
     390:	94 9f       	mul	r25, r20
     392:	f0 01       	movw	r30, r0
     394:	95 9f       	mul	r25, r21
     396:	f0 0d       	add	r31, r0
     398:	11 24       	eor	r1, r1
     39a:	ec 0f       	add	r30, r28
     39c:	fd 1f       	adc	r31, r29
     39e:	0c ed       	ldi	r16, 0xDC	; 220
     3a0:	15 e0       	ldi	r17, 0x05	; 5
     3a2:	20 e0       	ldi	r18, 0x00	; 0
     3a4:	30 e0       	ldi	r19, 0x00	; 0
     3a6:	06 8b       	std	Z+22, r16	; 0x16
     3a8:	17 8b       	std	Z+23, r17	; 0x17
     3aa:	20 8f       	std	Z+24, r18	; 0x18
     3ac:	31 8f       	std	Z+25, r19	; 0x19
		ctx->eyectores[i].estado = EYECTOR_IDLE;
     3ae:	15 a6       	std	Z+45, r1	; 0x2d
		ctx->eyectores[i].cronometro_ms = 0UL;
     3b0:	16 a6       	std	Z+46, r1	; 0x2e
     3b2:	17 a6       	std	Z+47, r1	; 0x2f
     3b4:	10 aa       	std	Z+48, r1	; 0x30
     3b6:	11 aa       	std	Z+49, r1	; 0x31
		
		// Inicializar la cola FIFO de cada brazo (vacía)
		ctx->eyectores[i].fifo_head = 0U;
     3b8:	12 a6       	std	Z+42, r1	; 0x2a
		ctx->eyectores[i].fifo_tail = 0U;
     3ba:	13 a6       	std	Z+43, r1	; 0x2b
		ctx->eyectores[i].fifo_count = 0U;
     3bc:	14 a6       	std	Z+44, r1	; 0x2c
		
		for (uint8_t j = 0; j < CLASIFICADOR_FIFO_CAPACITY; j++) {
     3be:	90 e0       	ldi	r25, 0x00	; 0
     3c0:	0c c0       	rjmp	.+24     	; 0x3da <Clasificador_Init+0xf8>
			ctx->eyectores[i].fifo_cola[j] = CAJA_NINGUNA;
     3c2:	2d e1       	ldi	r18, 0x1D	; 29
     3c4:	24 9f       	mul	r18, r20
     3c6:	f0 01       	movw	r30, r0
     3c8:	25 9f       	mul	r18, r21
     3ca:	f0 0d       	add	r31, r0
     3cc:	11 24       	eor	r1, r1
     3ce:	ec 0f       	add	r30, r28
     3d0:	fd 1f       	adc	r31, r29
     3d2:	e9 0f       	add	r30, r25
     3d4:	f1 1d       	adc	r31, r1
     3d6:	12 8e       	std	Z+26, r1	; 0x1a
		// Inicializar la cola FIFO de cada brazo (vacía)
		ctx->eyectores[i].fifo_head = 0U;
		ctx->eyectores[i].fifo_tail = 0U;
		ctx->eyectores[i].fifo_count = 0U;
		
		for (uint8_t j = 0; j < CLASIFICADOR_FIFO_CAPACITY; j++) {
     3d8:	9f 5f       	subi	r25, 0xFF	; 255
     3da:	90 31       	cpi	r25, 0x10	; 16
     3dc:	90 f3       	brcs	.-28     	; 0x3c2 <Clasificador_Init+0xe0>
	ctx->config_cajas.umbral_mediana_mm = CLASIFICADOR_DEFAULT_MEDIANA_MM;
	ctx->config_cajas.umbral_grande_mm  = CLASIFICADOR_DEFAULT_GRANDE_MM;
	ctx->config_cajas.tolerancia_mm     = CLASIFICADOR_DEFAULT_TOLERANCIA_MM;

	// 3. Inicializar y mapear los 3 módulos Eyectores independientes
	for (uint8_t i = 0; i < 3; i++) {
     3de:	8f 5f       	subi	r24, 0xFF	; 255
     3e0:	83 30       	cpi	r24, 0x03	; 3
     3e2:	98 f2       	brcs	.-90     	; 0x38a <Clasificador_Init+0xa8>
			ctx->eyectores[i].fifo_cola[j] = CAJA_NINGUNA;
		}
	}

	// Mapeo por defecto de la aplicación: Brazo 0 -> Chica, Brazo 1 -> Mediana, Brazo 2 -> Grande
	ctx->eyectores[0].caja_asignada = CAJA_CHICA;
     3e4:	81 e0       	ldi	r24, 0x01	; 1
     3e6:	8d 8b       	std	Y+21, r24	; 0x15
	ctx->eyectores[1].caja_asignada = CAJA_MEDIANA;
     3e8:	82 e0       	ldi	r24, 0x02	; 2
     3ea:	8a ab       	std	Y+50, r24	; 0x32
	ctx->eyectores[2].caja_asignada = CAJA_GRANDE;
     3ec:	c1 5b       	subi	r28, 0xB1	; 177
     3ee:	df 4f       	sbci	r29, 0xFF	; 255
     3f0:	83 e0       	ldi	r24, 0x03	; 3
     3f2:	88 83       	st	Y, r24
}
     3f4:	df 91       	pop	r29
     3f6:	cf 91       	pop	r28
     3f8:	1f 91       	pop	r17
     3fa:	0f 91       	pop	r16
     3fc:	ff 90       	pop	r15
     3fe:	ef 90       	pop	r14
     400:	08 95       	ret

00000402 <Clasificador_ComandoInicio>:
/* ========================================================================
   COMANDOS DE CONTROL EXTERNO (USART)
   ======================================================================== */

void Clasificador_ComandoInicio(Clasificador_Ctrl_t *ctx) {
	if (ctx == (void*)0) return;
     402:	00 97       	sbiw	r24, 0x00	; 0
     404:	a1 f0       	breq	.+40     	; 0x42e <Clasificador_ComandoInicio+0x2c>
	
	// Si el sistema estaba apagado, se pone en modo de escucha activo
	if (ctx->estado_master == ESTADO_APAGADO) {
     406:	fc 01       	movw	r30, r24
     408:	20 81       	ld	r18, Z
     40a:	21 11       	cpse	r18, r1
     40c:	10 c0       	rjmp	.+32     	; 0x42e <Clasificador_ComandoInicio+0x2c>
		ctx->estado_master = ESTADO_ESPERA_CAJA;
     40e:	21 e0       	ldi	r18, 0x01	; 1
     410:	20 83       	st	Z, r18
		ctx->suma_distancias_mm = 0UL;
     412:	e4 59       	subi	r30, 0x94	; 148
     414:	ff 4f       	sbci	r31, 0xFF	; 255
     416:	10 82       	st	Z, r1
     418:	11 82       	std	Z+1, r1	; 0x01
     41a:	12 82       	std	Z+2, r1	; 0x02
     41c:	13 82       	std	Z+3, r1	; 0x03
		ctx->cantidad_muestras = 0UL;
     41e:	34 96       	adiw	r30, 0x04	; 4
     420:	10 82       	st	Z, r1
     422:	11 82       	std	Z+1, r1	; 0x01
     424:	12 82       	std	Z+2, r1	; 0x02
     426:	13 82       	std	Z+3, r1	; 0x03
		
		// NUEVO: Arrancó el modo normal, clavamos A0 en BAJO
		PORTC &= ~(1 << PC0);
     428:	88 b1       	in	r24, 0x08	; 8
     42a:	8e 7f       	andi	r24, 0xFE	; 254
     42c:	88 b9       	out	0x08, r24	; 8
     42e:	08 95       	ret

00000430 <Clasificador_ComandoParada>:
	}
}

void Clasificador_ComandoParada(Clasificador_Ctrl_t *ctx) {
     430:	dc 01       	movw	r26, r24
	if (ctx == (void*)0) return;
     432:	89 2b       	or	r24, r25
     434:	29 f1       	breq	.+74     	; 0x480 <Clasificador_ComandoParada+0x50>
	
	// Fuerza el apagado completo del coordinador
	ctx->estado_master = ESTADO_APAGADO;
     436:	1c 92       	st	X, r1
	// 2. Limpiamos las colas FIFO y reseteamos el estado de los 3 brazos
	for (uint8_t i = 0; i < 3; i++) {
     438:	90 e0       	ldi	r25, 0x00	; 0
     43a:	0b c0       	rjmp	.+22     	; 0x452 <Clasificador_ComandoParada+0x22>
		ctx->eyectores[i].fifo_head = 0U;
     43c:	fd 01       	movw	r30, r26
     43e:	8d e1       	ldi	r24, 0x1D	; 29
     440:	98 9f       	mul	r25, r24
     442:	e0 0d       	add	r30, r0
     444:	f1 1d       	adc	r31, r1
     446:	11 24       	eor	r1, r1
     448:	12 a6       	std	Z+42, r1	; 0x2a
		ctx->eyectores[i].fifo_tail = 0U;
     44a:	13 a6       	std	Z+43, r1	; 0x2b
		ctx->eyectores[i].fifo_count = 0U;
     44c:	14 a6       	std	Z+44, r1	; 0x2c
		ctx->eyectores[i].estado = EYECTOR_IDLE; // Cancelamos cualquier golpe en curso
     44e:	15 a6       	std	Z+45, r1	; 0x2d
	if (ctx == (void*)0) return;
	
	// Fuerza el apagado completo del coordinador
	ctx->estado_master = ESTADO_APAGADO;
	// 2. Limpiamos las colas FIFO y reseteamos el estado de los 3 brazos
	for (uint8_t i = 0; i < 3; i++) {
     450:	9f 5f       	subi	r25, 0xFF	; 255
     452:	93 30       	cpi	r25, 0x03	; 3
     454:	98 f3       	brcs	.-26     	; 0x43c <Clasificador_ComandoParada+0xc>
		ctx->eyectores[i].fifo_count = 0U;
		ctx->eyectores[i].estado = EYECTOR_IDLE; // Cancelamos cualquier golpe en curso
	}

	// 3. Limpiamos la memoria geográfica (Topología)
	Tracker_Init();
     456:	0e 94 c6 11 	call	0x238c	; 0x238c <Tracker_Init>
	// 4. Limpiamos las simulaciones en curso del Modo Ciego
	for (uint8_t i = 0; i < CIEGO_MAX_CAJAS; i++) {
     45a:	80 e0       	ldi	r24, 0x00	; 0
     45c:	08 c0       	rjmp	.+16     	; 0x46e <Clasificador_ComandoParada+0x3e>
		mi_modo_ciego.cajas_virtuales[i].activa = 0;
     45e:	9f e1       	ldi	r25, 0x1F	; 31
     460:	89 9f       	mul	r24, r25
     462:	f0 01       	movw	r30, r0
     464:	11 24       	eor	r1, r1
     466:	e8 53       	subi	r30, 0x38	; 56
     468:	fe 4f       	sbci	r31, 0xFE	; 254
     46a:	15 8a       	std	Z+21, r1	; 0x15
	}

	// 3. Limpiamos la memoria geográfica (Topología)
	Tracker_Init();
	// 4. Limpiamos las simulaciones en curso del Modo Ciego
	for (uint8_t i = 0; i < CIEGO_MAX_CAJAS; i++) {
     46c:	8f 5f       	subi	r24, 0xFF	; 255
     46e:	88 30       	cpi	r24, 0x08	; 8
     470:	b0 f3       	brcs	.-20     	; 0x45e <Clasificador_ComandoParada+0x2e>
		mi_modo_ciego.cajas_virtuales[i].activa = 0;
	}
	// NUEVO: Verificamos si el modo ciego también está apagado
	if (!mi_modo_ciego.activo) {
     472:	80 91 c8 01 	lds	r24, 0x01C8	; 0x8001c8 <mi_modo_ciego>
     476:	81 11       	cpse	r24, r1
     478:	03 c0       	rjmp	.+6      	; 0x480 <Clasificador_ComandoParada+0x50>
		PORTC |= (1 << PC0); // Ambos apagados, A0 vuelve a ALTO
     47a:	88 b1       	in	r24, 0x08	; 8
     47c:	81 60       	ori	r24, 0x01	; 1
     47e:	88 b9       	out	0x08, r24	; 8
     480:	08 95       	ret

00000482 <Clasificador_InfrarrojoEntrada_Callback>:

/* ========================================================================
   PUENTES DE EVENTOS: INFRARROJO DE ENTRADA (ir_s0)
   ======================================================================== */

void Clasificador_InfrarrojoEntrada_Callback(Clasificador_Ctrl_t *ctx, uint8_t objeto_detectado) {
     482:	8f 92       	push	r8
     484:	9f 92       	push	r9
     486:	af 92       	push	r10
     488:	bf 92       	push	r11
     48a:	cf 92       	push	r12
     48c:	df 92       	push	r13
     48e:	ef 92       	push	r14
     490:	ff 92       	push	r15
     492:	0f 93       	push	r16
     494:	1f 93       	push	r17
     496:	cf 93       	push	r28
     498:	df 93       	push	r29
     49a:	1f 92       	push	r1
     49c:	cd b7       	in	r28, 0x3d	; 61
     49e:	de b7       	in	r29, 0x3e	; 62
	if (ctx == (void*)0) return;
     4a0:	00 97       	sbiw	r24, 0x00	; 0
     4a2:	09 f4       	brne	.+2      	; 0x4a6 <Clasificador_InfrarrojoEntrada_Callback+0x24>
     4a4:	5a c0       	rjmp	.+180    	; 0x55a <Clasificador_InfrarrojoEntrada_Callback+0xd8>

	// 1. CANDADO GENERAL: Si ambos modos están apagados, no hacemos nada.
	if (ctx->estado_master == ESTADO_APAGADO && !mi_modo_ciego.activo) return;
     4a6:	fc 01       	movw	r30, r24
     4a8:	20 81       	ld	r18, Z
     4aa:	21 11       	cpse	r18, r1
     4ac:	05 c0       	rjmp	.+10     	; 0x4b8 <Clasificador_InfrarrojoEntrada_Callback+0x36>
     4ae:	30 91 c8 01 	lds	r19, 0x01C8	; 0x8001c8 <mi_modo_ciego>
     4b2:	33 23       	and	r19, r19
     4b4:	09 f4       	brne	.+2      	; 0x4b8 <Clasificador_InfrarrojoEntrada_Callback+0x36>
     4b6:	51 c0       	rjmp	.+162    	; 0x55a <Clasificador_InfrarrojoEntrada_Callback+0xd8>

	if (objeto_detectado) {
     4b8:	66 23       	and	r22, r22
     4ba:	91 f0       	breq	.+36     	; 0x4e0 <Clasificador_InfrarrojoEntrada_Callback+0x5e>
		// Flanco de subida: Entramos a medir la ráfaga (sin importar el modo)
		if (ctx->estado_master == ESTADO_ESPERA_CAJA || ctx->estado_master == ESTADO_APAGADO) {
     4bc:	22 30       	cpi	r18, 0x02	; 2
     4be:	08 f0       	brcs	.+2      	; 0x4c2 <Clasificador_InfrarrojoEntrada_Callback+0x40>
     4c0:	4c c0       	rjmp	.+152    	; 0x55a <Clasificador_InfrarrojoEntrada_Callback+0xd8>
			ctx->estado_master = ESTADO_MIDIENDO_RAFAGA;
     4c2:	22 e0       	ldi	r18, 0x02	; 2
     4c4:	fc 01       	movw	r30, r24
     4c6:	20 83       	st	Z, r18
			ctx->suma_distancias_mm = 0UL;
     4c8:	e4 59       	subi	r30, 0x94	; 148
     4ca:	ff 4f       	sbci	r31, 0xFF	; 255
     4cc:	10 82       	st	Z, r1
     4ce:	11 82       	std	Z+1, r1	; 0x01
     4d0:	12 82       	std	Z+2, r1	; 0x02
     4d2:	13 82       	std	Z+3, r1	; 0x03
			ctx->cantidad_muestras = 0UL;
     4d4:	34 96       	adiw	r30, 0x04	; 4
     4d6:	10 82       	st	Z, r1
     4d8:	11 82       	std	Z+1, r1	; 0x01
     4da:	12 82       	std	Z+2, r1	; 0x02
     4dc:	13 82       	std	Z+3, r1	; 0x03
     4de:	3d c0       	rjmp	.+122    	; 0x55a <Clasificador_InfrarrojoEntrada_Callback+0xd8>
		}
		} else {
		// Flanco de bajada: Terminó de pasar la caja, calculamos.
		if (ctx->estado_master == ESTADO_MIDIENDO_RAFAGA) {
     4e0:	22 30       	cpi	r18, 0x02	; 2
     4e2:	d9 f5       	brne	.+118    	; 0x55a <Clasificador_InfrarrojoEntrada_Callback+0xd8>
     4e4:	8c 01       	movw	r16, r24
			
			if (ctx->cantidad_muestras > 0UL) {
     4e6:	fc 01       	movw	r30, r24
     4e8:	e0 59       	subi	r30, 0x90	; 144
     4ea:	ff 4f       	sbci	r31, 0xFF	; 255
     4ec:	c0 80       	ld	r12, Z
     4ee:	d1 80       	ldd	r13, Z+1	; 0x01
     4f0:	e2 80       	ldd	r14, Z+2	; 0x02
     4f2:	f3 80       	ldd	r15, Z+3	; 0x03
     4f4:	c1 14       	cp	r12, r1
     4f6:	d1 04       	cpc	r13, r1
     4f8:	e1 04       	cpc	r14, r1
     4fa:	f1 04       	cpc	r15, r1
     4fc:	21 f1       	breq	.+72     	; 0x546 <Clasificador_InfrarrojoEntrada_Callback+0xc4>
				float promedio_mm = (float)ctx->suma_distancias_mm / (float)ctx->cantidad_muestras;
     4fe:	34 97       	sbiw	r30, 0x04	; 4
     500:	60 81       	ld	r22, Z
     502:	71 81       	ldd	r23, Z+1	; 0x01
     504:	82 81       	ldd	r24, Z+2	; 0x02
     506:	93 81       	ldd	r25, Z+3	; 0x03
     508:	0e 94 18 14 	call	0x2830	; 0x2830 <__floatunsisf>
     50c:	4b 01       	movw	r8, r22
     50e:	5c 01       	movw	r10, r24
     510:	c7 01       	movw	r24, r14
     512:	b6 01       	movw	r22, r12
     514:	0e 94 18 14 	call	0x2830	; 0x2830 <__floatunsisf>
     518:	9b 01       	movw	r18, r22
     51a:	ac 01       	movw	r20, r24
     51c:	c5 01       	movw	r24, r10
     51e:	b4 01       	movw	r22, r8
     520:	0e 94 70 13 	call	0x26e0	; 0x26e0 <__divsf3>
     524:	6b 01       	movw	r12, r22
     526:	7c 01       	movw	r14, r24
				
				uint8_t payload_prom[1] = { (uint8_t)promedio_mm };
     528:	0e 94 e9 13 	call	0x27d2	; 0x27d2 <__fixunssfsi>
     52c:	69 83       	std	Y+1, r22	; 0x01
				Encode(0x5F, payload_prom, 1U);
     52e:	41 e0       	ldi	r20, 0x01	; 1
     530:	be 01       	movw	r22, r28
     532:	6f 5f       	subi	r22, 0xFF	; 255
     534:	7f 4f       	sbci	r23, 0xFF	; 255
     536:	8f e5       	ldi	r24, 0x5F	; 95
     538:	0e 94 dc 10 	call	0x21b8	; 0x21b8 <Encode>
				
				Clasificador_ProcesarResultadoMedicion(ctx, promedio_mm);
     53c:	b7 01       	movw	r22, r14
     53e:	a6 01       	movw	r20, r12
     540:	c8 01       	movw	r24, r16
     542:	0e 94 53 01 	call	0x2a6	; 0x2a6 <Clasificador_ProcesarResultadoMedicion>
			}
			
			// 2. RESTAURACIÓN: Si estamos en modo ciego, el clasificador normal
			// vuelve a dormirse. Si no, vuelve a esperar caja.
			if (mi_modo_ciego.activo) {
     546:	80 91 c8 01 	lds	r24, 0x01C8	; 0x8001c8 <mi_modo_ciego>
     54a:	88 23       	and	r24, r24
     54c:	19 f0       	breq	.+6      	; 0x554 <Clasificador_InfrarrojoEntrada_Callback+0xd2>
				ctx->estado_master = ESTADO_APAGADO;
     54e:	f8 01       	movw	r30, r16
     550:	10 82       	st	Z, r1
     552:	03 c0       	rjmp	.+6      	; 0x55a <Clasificador_InfrarrojoEntrada_Callback+0xd8>
				} else {
				ctx->estado_master = ESTADO_ESPERA_CAJA;
     554:	81 e0       	ldi	r24, 0x01	; 1
     556:	f8 01       	movw	r30, r16
     558:	80 83       	st	Z, r24
			}
		}
	}
}
     55a:	0f 90       	pop	r0
     55c:	df 91       	pop	r29
     55e:	cf 91       	pop	r28
     560:	1f 91       	pop	r17
     562:	0f 91       	pop	r16
     564:	ff 90       	pop	r15
     566:	ef 90       	pop	r14
     568:	df 90       	pop	r13
     56a:	cf 90       	pop	r12
     56c:	bf 90       	pop	r11
     56e:	af 90       	pop	r10
     570:	9f 90       	pop	r9
     572:	8f 90       	pop	r8
     574:	08 95       	ret

00000576 <Clasificador_Ultrasonico_Callback>:

/* ========================================================================
   PUENTES DE EVENTOS: CAPTURA DE DISTANCIA DEL ULTRASONICO
   ======================================================================== */

void Clasificador_Ultrasonico_Callback(Clasificador_Ctrl_t *ctx, float distancia_mm) {
     576:	2f 92       	push	r2
     578:	3f 92       	push	r3
     57a:	4f 92       	push	r4
     57c:	5f 92       	push	r5
     57e:	6f 92       	push	r6
     580:	7f 92       	push	r7
     582:	8f 92       	push	r8
     584:	9f 92       	push	r9
     586:	af 92       	push	r10
     588:	bf 92       	push	r11
     58a:	cf 92       	push	r12
     58c:	df 92       	push	r13
     58e:	ef 92       	push	r14
     590:	ff 92       	push	r15
     592:	0f 93       	push	r16
     594:	1f 93       	push	r17
     596:	cf 93       	push	r28
     598:	df 93       	push	r29
     59a:	1f 92       	push	r1
     59c:	cd b7       	in	r28, 0x3d	; 61
     59e:	de b7       	in	r29, 0x3e	; 62
	// 1. Filtrado universal: Si es un error (-1.0f), salimos.
	// La lógica de abortar la calibración por error ya la maneja on_resultado en main.c
	if (ctx == (void*)0 || distancia_mm < 0.0f) return;
     5a0:	00 97       	sbiw	r24, 0x00	; 0
     5a2:	09 f4       	brne	.+2      	; 0x5a6 <Clasificador_Ultrasonico_Callback+0x30>
     5a4:	80 c0       	rjmp	.+256    	; 0x6a6 <Clasificador_Ultrasonico_Callback+0x130>
     5a6:	6a 01       	movw	r12, r20
     5a8:	7b 01       	movw	r14, r22
     5aa:	5c 01       	movw	r10, r24
     5ac:	20 e0       	ldi	r18, 0x00	; 0
     5ae:	30 e0       	ldi	r19, 0x00	; 0
     5b0:	a9 01       	movw	r20, r18
     5b2:	c7 01       	movw	r24, r14
     5b4:	b6 01       	movw	r22, r12
     5b6:	0e 94 6b 13 	call	0x26d6	; 0x26d6 <__cmpsf2>
     5ba:	88 23       	and	r24, r24
     5bc:	0c f4       	brge	.+2      	; 0x5c0 <Clasificador_Ultrasonico_Callback+0x4a>
     5be:	73 c0       	rjmp	.+230    	; 0x6a6 <Clasificador_Ultrasonico_Callback+0x130>

	// =========================================================
	// BLOQUE 1: MODO PRODUCCIÓN NORMAL (Cajas en la cinta)
	// =========================================================
	if (ctx->estado_master == ESTADO_MIDIENDO_RAFAGA) {
     5c0:	f5 01       	movw	r30, r10
     5c2:	80 81       	ld	r24, Z
     5c4:	82 30       	cpi	r24, 0x02	; 2
     5c6:	29 f5       	brne	.+74     	; 0x612 <Clasificador_Ultrasonico_Callback+0x9c>
		ctx->suma_distancias_mm += (uint32_t)distancia_mm;
     5c8:	c7 01       	movw	r24, r14
     5ca:	b6 01       	movw	r22, r12
     5cc:	0e 94 e9 13 	call	0x27d2	; 0x27d2 <__fixunssfsi>
     5d0:	f5 01       	movw	r30, r10
     5d2:	e4 59       	subi	r30, 0x94	; 148
     5d4:	ff 4f       	sbci	r31, 0xFF	; 255
     5d6:	c0 80       	ld	r12, Z
     5d8:	d1 80       	ldd	r13, Z+1	; 0x01
     5da:	e2 80       	ldd	r14, Z+2	; 0x02
     5dc:	f3 80       	ldd	r15, Z+3	; 0x03
     5de:	dc 01       	movw	r26, r24
     5e0:	cb 01       	movw	r24, r22
     5e2:	8c 0d       	add	r24, r12
     5e4:	9d 1d       	adc	r25, r13
     5e6:	ae 1d       	adc	r26, r14
     5e8:	bf 1d       	adc	r27, r15
     5ea:	80 83       	st	Z, r24
     5ec:	91 83       	std	Z+1, r25	; 0x01
     5ee:	a2 83       	std	Z+2, r26	; 0x02
     5f0:	b3 83       	std	Z+3, r27	; 0x03
		ctx->cantidad_muestras++;
     5f2:	34 96       	adiw	r30, 0x04	; 4
     5f4:	80 81       	ld	r24, Z
     5f6:	91 81       	ldd	r25, Z+1	; 0x01
     5f8:	a2 81       	ldd	r26, Z+2	; 0x02
     5fa:	b3 81       	ldd	r27, Z+3	; 0x03
     5fc:	01 96       	adiw	r24, 0x01	; 1
     5fe:	a1 1d       	adc	r26, r1
     600:	b1 1d       	adc	r27, r1
     602:	80 83       	st	Z, r24
     604:	91 83       	std	Z+1, r25	; 0x01
     606:	a2 83       	std	Z+2, r26	; 0x02
     608:	b3 83       	std	Z+3, r27	; 0x03
		// NUEVO: Agregamos el respiro acústico para la próxima medición de la caja
		ctx->calib_timer_retrigger_ms = 60U;
     60a:	3a 96       	adiw	r30, 0x0a	; 10
     60c:	2c e3       	ldi	r18, 0x3C	; 60
     60e:	20 83       	st	Z, r18
     610:	4a c0       	rjmp	.+148    	; 0x6a6 <Clasificador_Ultrasonico_Callback+0x130>
	}

	// =========================================================
	// BLOQUE 2: MODO CALIBRACIÓN MANUAL (Totalmente independiente)
	// =========================================================
	else if (ctx->estado_master == ESTADO_CALIBRACION_MANUAL) {
     612:	83 30       	cpi	r24, 0x03	; 3
     614:	09 f0       	breq	.+2      	; 0x618 <Clasificador_Ultrasonico_Callback+0xa2>
     616:	47 c0       	rjmp	.+142    	; 0x6a6 <Clasificador_Ultrasonico_Callback+0x130>
		
		if (ctx->calib_muestras_restantes > 0U) {
     618:	f5 01       	movw	r30, r10
     61a:	ec 58       	subi	r30, 0x8C	; 140
     61c:	ff 4f       	sbci	r31, 0xFF	; 255
     61e:	10 81       	ld	r17, Z
     620:	11 23       	and	r17, r17
     622:	09 f4       	brne	.+2      	; 0x626 <Clasificador_Ultrasonico_Callback+0xb0>
     624:	40 c0       	rjmp	.+128    	; 0x6a6 <Clasificador_Ultrasonico_Callback+0x130>
			// Sumamos a la variable EXCLUSIVA de calibración
			ctx->calib_suma_mm += (uint32_t)distancia_mm;
     626:	c7 01       	movw	r24, r14
     628:	b6 01       	movw	r22, r12
     62a:	0e 94 e9 13 	call	0x27d2	; 0x27d2 <__fixunssfsi>
     62e:	f5 01       	movw	r30, r10
     630:	eb 58       	subi	r30, 0x8B	; 139
     632:	ff 4f       	sbci	r31, 0xFF	; 255
     634:	c0 80       	ld	r12, Z
     636:	d1 80       	ldd	r13, Z+1	; 0x01
     638:	e2 80       	ldd	r14, Z+2	; 0x02
     63a:	f3 80       	ldd	r15, Z+3	; 0x03
     63c:	6c 0d       	add	r22, r12
     63e:	7d 1d       	adc	r23, r13
     640:	8e 1d       	adc	r24, r14
     642:	9f 1d       	adc	r25, r15
     644:	60 83       	st	Z, r22
     646:	71 83       	std	Z+1, r23	; 0x01
     648:	82 83       	std	Z+2, r24	; 0x02
     64a:	93 83       	std	Z+3, r25	; 0x03
			ctx->calib_muestras_restantes--;
     64c:	11 50       	subi	r17, 0x01	; 1
     64e:	31 97       	sbiw	r30, 0x01	; 1
     650:	10 83       	st	Z, r17

			if (ctx->calib_muestras_restantes > 0U) {
     652:	11 23       	and	r17, r17
     654:	21 f0       	breq	.+8      	; 0x65e <Clasificador_Ultrasonico_Callback+0xe8>
				ctx->calib_timer_retrigger_ms = 60U; // Respiro acústico
     656:	36 96       	adiw	r30, 0x06	; 6
     658:	2c e3       	ldi	r18, 0x3C	; 60
     65a:	20 83       	st	Z, r18
     65c:	24 c0       	rjmp	.+72     	; 0x6a6 <Clasificador_Ultrasonico_Callback+0x130>
			} else {
				// ˇLlegamos a las 5 muestras!
				uint8_t promedio_final_mm = (uint8_t)(ctx->calib_suma_mm / 5UL);
     65e:	2d ec       	ldi	r18, 0xCD	; 205
     660:	3c ec       	ldi	r19, 0xCC	; 204
     662:	4c ec       	ldi	r20, 0xCC	; 204
     664:	5c ec       	ldi	r21, 0xCC	; 204
     666:	0e 94 73 15 	call	0x2ae6	; 0x2ae6 <__umulsidi3>
     66a:	00 e2       	ldi	r16, 0x20	; 32
     66c:	0e 94 a0 15 	call	0x2b40	; 0x2b40 <__lshrdi3>
     670:	22 2e       	mov	r2, r18
     672:	33 2e       	mov	r3, r19
     674:	44 2e       	mov	r4, r20
     676:	55 2e       	mov	r5, r21
     678:	d2 01       	movw	r26, r4
     67a:	c1 01       	movw	r24, r2
     67c:	b6 95       	lsr	r27
     67e:	a7 95       	ror	r26
     680:	97 95       	ror	r25
     682:	87 95       	ror	r24
     684:	b6 95       	lsr	r27
     686:	a7 95       	ror	r26
     688:	97 95       	ror	r25
     68a:	87 95       	ror	r24
				
				uint8_t payload_res[1];
				payload_res[0] = promedio_final_mm;
     68c:	89 83       	std	Y+1, r24	; 0x01
				Encode(ctx->calib_comando_origen, payload_res, 1U);
     68e:	f5 01       	movw	r30, r10
     690:	e7 58       	subi	r30, 0x87	; 135
     692:	ff 4f       	sbci	r31, 0xFF	; 255
     694:	41 e0       	ldi	r20, 0x01	; 1
     696:	be 01       	movw	r22, r28
     698:	6f 5f       	subi	r22, 0xFF	; 255
     69a:	7f 4f       	sbci	r23, 0xFF	; 255
     69c:	80 81       	ld	r24, Z
     69e:	0e 94 dc 10 	call	0x21b8	; 0x21b8 <Encode>

				ctx->estado_master = ESTADO_APAGADO;
     6a2:	f5 01       	movw	r30, r10
     6a4:	10 82       	st	Z, r1
			}
		}
	}
}
     6a6:	0f 90       	pop	r0
     6a8:	df 91       	pop	r29
     6aa:	cf 91       	pop	r28
     6ac:	1f 91       	pop	r17
     6ae:	0f 91       	pop	r16
     6b0:	ff 90       	pop	r15
     6b2:	ef 90       	pop	r14
     6b4:	df 90       	pop	r13
     6b6:	cf 90       	pop	r12
     6b8:	bf 90       	pop	r11
     6ba:	af 90       	pop	r10
     6bc:	9f 90       	pop	r9
     6be:	8f 90       	pop	r8
     6c0:	7f 90       	pop	r7
     6c2:	6f 90       	pop	r6
     6c4:	5f 90       	pop	r5
     6c6:	4f 90       	pop	r4
     6c8:	3f 90       	pop	r3
     6ca:	2f 90       	pop	r2
     6cc:	08 95       	ret

000006ce <Clasificador_InfrarrojoEyector_Callback>:
}

/**
 * @brief Callback que se ejecuta cuando cambian los sensores IR de los brazos.
 */
void Clasificador_InfrarrojoEyector_Callback(Clasificador_Ctrl_t *ctx, uint8_t indice_eyector, uint8_t objeto_detectado) {
     6ce:	ef 92       	push	r14
     6d0:	ff 92       	push	r15
     6d2:	0f 93       	push	r16
     6d4:	1f 93       	push	r17
     6d6:	cf 93       	push	r28
     6d8:	df 93       	push	r29
	if (ctx == (void*)0 || ctx->estado_master == ESTADO_APAGADO) return;
     6da:	00 97       	sbiw	r24, 0x00	; 0
     6dc:	09 f4       	brne	.+2      	; 0x6e0 <Clasificador_InfrarrojoEyector_Callback+0x12>
     6de:	3f c0       	rjmp	.+126    	; 0x75e <Clasificador_InfrarrojoEyector_Callback+0x90>
     6e0:	fc 01       	movw	r30, r24
     6e2:	20 81       	ld	r18, Z
     6e4:	22 23       	and	r18, r18
     6e6:	d9 f1       	breq	.+118    	; 0x75e <Clasificador_InfrarrojoEyector_Callback+0x90>
	if (indice_eyector >= 3) return;
     6e8:	63 30       	cpi	r22, 0x03	; 3
     6ea:	c8 f5       	brcc	.+114    	; 0x75e <Clasificador_InfrarrojoEyector_Callback+0x90>
     6ec:	ec 01       	movw	r28, r24

	Clasificador_Eyector_t *b = &ctx->eyectores[indice_eyector];
     6ee:	e6 2e       	mov	r14, r22
     6f0:	f1 2c       	mov	r15, r1
     6f2:	2d e1       	ldi	r18, 0x1D	; 29
     6f4:	2e 9d       	mul	r18, r14
     6f6:	c0 01       	movw	r24, r0
     6f8:	2f 9d       	mul	r18, r15
     6fa:	90 0d       	add	r25, r0
     6fc:	11 24       	eor	r1, r1
     6fe:	45 96       	adiw	r24, 0x15	; 21
     700:	8f 01       	movw	r16, r30
     702:	08 0f       	add	r16, r24
     704:	19 1f       	adc	r17, r25

	if (objeto_detectado) {
     706:	44 23       	and	r20, r20
     708:	31 f1       	breq	.+76     	; 0x756 <Clasificador_InfrarrojoEyector_Callback+0x88>
		// Flanco de subida: Una caja física acaba de cortar el haz
		if (b->estado == EYECTOR_IDLE) {
     70a:	8d e1       	ldi	r24, 0x1D	; 29
     70c:	8e 9d       	mul	r24, r14
     70e:	f0 01       	movw	r30, r0
     710:	8f 9d       	mul	r24, r15
     712:	f0 0d       	add	r31, r0
     714:	11 24       	eor	r1, r1
     716:	ec 0f       	add	r30, r28
     718:	fd 1f       	adc	r31, r29
     71a:	85 a5       	ldd	r24, Z+45	; 0x2d
     71c:	81 11       	cpse	r24, r1
     71e:	1f c0       	rjmp	.+62     	; 0x75e <Clasificador_InfrarrojoEyector_Callback+0x90>
			
			Clasificador_TipoCaja_t proxima_caja_en_fifo = Clasificador_PeekFIFO(b);
     720:	c8 01       	movw	r24, r16
     722:	0e 94 38 01 	call	0x270	; 0x270 <Clasificador_PeekFIFO>
			
			if (proxima_caja_en_fifo == b->caja_asignada) {
     726:	9d e1       	ldi	r25, 0x1D	; 29
     728:	9e 9d       	mul	r25, r14
     72a:	f0 01       	movw	r30, r0
     72c:	9f 9d       	mul	r25, r15
     72e:	f0 0d       	add	r31, r0
     730:	11 24       	eor	r1, r1
     732:	ec 0f       	add	r30, r28
     734:	fd 1f       	adc	r31, r29
     736:	95 89       	ldd	r25, Z+21	; 0x15
     738:	89 13       	cpse	r24, r25
     73a:	07 c0       	rjmp	.+14     	; 0x74a <Clasificador_InfrarrojoEyector_Callback+0x7c>
				// Coincide: Arrancamos el retraso programable y pateamos
				b->estado = EYECTOR_ESPERANDO_DELAY;
     73c:	81 e0       	ldi	r24, 0x01	; 1
     73e:	85 a7       	std	Z+45, r24	; 0x2d
				b->cronometro_ms = 0UL;
     740:	16 a6       	std	Z+46, r1	; 0x2e
     742:	17 a6       	std	Z+47, r1	; 0x2f
     744:	10 aa       	std	Z+48, r1	; 0x30
     746:	11 aa       	std	Z+49, r1	; 0x31
     748:	0a c0       	rjmp	.+20     	; 0x75e <Clasificador_InfrarrojoEyector_Callback+0x90>
			}
			else if (proxima_caja_en_fifo != CAJA_NINGUNA) {
     74a:	88 23       	and	r24, r24
     74c:	41 f0       	breq	.+16     	; 0x75e <Clasificador_InfrarrojoEyector_Callback+0x90>
				// FIX: ˇLa caja física llegó, pero es de otro tamańo o es la mala!
				// La sacamos INMEDIATAMENTE de la memoria de este brazo (Pop)
				// para que la deje pasar y podamos esperar tranquilos a la siguiente.
				Clasificador_PopFIFO(b);
     74e:	c8 01       	movw	r24, r16
     750:	0e 94 43 01 	call	0x286	; 0x286 <Clasificador_PopFIFO>
     754:	04 c0       	rjmp	.+8      	; 0x75e <Clasificador_InfrarrojoEyector_Callback+0x90>
			}
		}
		} else {
		// Flanco de bajada: La caja terminó de pasar
		Tracker_TransicionSensor(indice_eyector + 1);
     756:	81 e0       	ldi	r24, 0x01	; 1
     758:	86 0f       	add	r24, r22
     75a:	0e 94 34 12 	call	0x2468	; 0x2468 <Tracker_TransicionSensor>
	}
}
     75e:	df 91       	pop	r29
     760:	cf 91       	pop	r28
     762:	1f 91       	pop	r17
     764:	0f 91       	pop	r16
     766:	ff 90       	pop	r15
     768:	ef 90       	pop	r14
     76a:	08 95       	ret

0000076c <Clasificador_Task_Brazos_ms>:

void Clasificador_Task_Brazos_ms(Clasificador_Ctrl_t *ctx, uint8_t periodo_ms) {
     76c:	cf 92       	push	r12
     76e:	df 92       	push	r13
     770:	ef 92       	push	r14
     772:	ff 92       	push	r15
     774:	0f 93       	push	r16
     776:	1f 93       	push	r17
     778:	cf 93       	push	r28
     77a:	df 93       	push	r29
     77c:	00 d0       	rcall	.+0      	; 0x77e <Clasificador_Task_Brazos_ms+0x12>
     77e:	00 d0       	rcall	.+0      	; 0x780 <Clasificador_Task_Brazos_ms+0x14>
     780:	00 d0       	rcall	.+0      	; 0x782 <Clasificador_Task_Brazos_ms+0x16>
     782:	cd b7       	in	r28, 0x3d	; 61
     784:	de b7       	in	r29, 0x3e	; 62
	
	if (ctx == (void*)0) return;
     786:	00 97       	sbiw	r24, 0x00	; 0
     788:	09 f4       	brne	.+2      	; 0x78c <Clasificador_Task_Brazos_ms+0x20>
     78a:	ff c0       	rjmp	.+510    	; 0x98a <__stack+0x8b>
     78c:	e6 2e       	mov	r14, r22
     78e:	8c 01       	movw	r16, r24

	// --- Motor Unificado de Re-disparo (Watchdog + Respiro Acústico) ---
	if (ctx->estado_master == ESTADO_CALIBRACION_MANUAL || ctx->estado_master == ESTADO_MIDIENDO_RAFAGA) {
     790:	fc 01       	movw	r30, r24
     792:	80 81       	ld	r24, Z
     794:	82 50       	subi	r24, 0x02	; 2
     796:	82 30       	cpi	r24, 0x02	; 2
     798:	00 f5       	brcc	.+64     	; 0x7da <Clasificador_Task_Brazos_ms+0x6e>
		if (ctx->calib_timer_retrigger_ms > periodo_ms) {
     79a:	e6 58       	subi	r30, 0x86	; 134
     79c:	ff 4f       	sbci	r31, 0xFF	; 255
     79e:	80 81       	ld	r24, Z
     7a0:	68 17       	cp	r22, r24
     7a2:	18 f4       	brcc	.+6      	; 0x7aa <Clasificador_Task_Brazos_ms+0x3e>
			ctx->calib_timer_retrigger_ms -= periodo_ms;
     7a4:	86 1b       	sub	r24, r22
     7a6:	80 83       	st	Z, r24
     7a8:	13 c0       	rjmp	.+38     	; 0x7d0 <Clasificador_Task_Brazos_ms+0x64>
			} else {
			extern HCSR04_t g_hcsr04;
		
			if (!g_hcsr04.esperando_eco) {
     7aa:	80 91 b3 01 	lds	r24, 0x01B3	; 0x8001b3 <g_hcsr04+0x9>
     7ae:	81 11       	cpse	r24, r1
     7b0:	0a c0       	rjmp	.+20     	; 0x7c6 <Clasificador_Task_Brazos_ms+0x5a>
				HCSR04_Trigger(&g_hcsr04);
     7b2:	8a ea       	ldi	r24, 0xAA	; 170
     7b4:	91 e0       	ldi	r25, 0x01	; 1
     7b6:	0e 94 7b 07 	call	0xef6	; 0xef6 <HCSR04_Trigger>
				ctx->calib_timer_retrigger_ms = 100U; // Watchdog 100ms
     7ba:	84 e6       	ldi	r24, 0x64	; 100
     7bc:	f8 01       	movw	r30, r16
     7be:	e6 58       	subi	r30, 0x86	; 134
     7c0:	ff 4f       	sbci	r31, 0xFF	; 255
     7c2:	80 83       	st	Z, r24
     7c4:	05 c0       	rjmp	.+10     	; 0x7d0 <Clasificador_Task_Brazos_ms+0x64>
				} else {
				ctx->calib_timer_retrigger_ms = 10U;  // Gracia 10ms
     7c6:	8a e0       	ldi	r24, 0x0A	; 10
     7c8:	f8 01       	movw	r30, r16
     7ca:	e6 58       	subi	r30, 0x86	; 134
     7cc:	ff 4f       	sbci	r31, 0xFF	; 255
     7ce:	80 83       	st	Z, r24
			}
		}
	
		// Si es calibración, no procesamos los servos, nos vamos.
		if (ctx->estado_master == ESTADO_CALIBRACION_MANUAL) return;
     7d0:	f8 01       	movw	r30, r16
     7d2:	80 81       	ld	r24, Z
     7d4:	83 30       	cpi	r24, 0x03	; 3
     7d6:	09 f4       	brne	.+2      	; 0x7da <Clasificador_Task_Brazos_ms+0x6e>
     7d8:	d8 c0       	rjmp	.+432    	; 0x98a <__stack+0x8b>
	}

	// Si el sistema está apagado, nos vamos sin mover servos
	if (ctx->estado_master == ESTADO_APAGADO) return;
     7da:	f8 01       	movw	r30, r16
     7dc:	80 81       	ld	r24, Z
     7de:	88 23       	and	r24, r24
     7e0:	09 f4       	brne	.+2      	; 0x7e4 <Clasificador_Task_Brazos_ms+0x78>
     7e2:	d3 c0       	rjmp	.+422    	; 0x98a <__stack+0x8b>

	// Vector auxiliar para poder indexar y apuntar a tus 3 estructuras de servos globales
	SG90_t *servos[3] = {&servo1, &servo2, &servo3};
     7e4:	86 e0       	ldi	r24, 0x06	; 6
     7e6:	e0 e0       	ldi	r30, 0x00	; 0
     7e8:	f1 e0       	ldi	r31, 0x01	; 1
     7ea:	de 01       	movw	r26, r28
     7ec:	11 96       	adiw	r26, 0x01	; 1
     7ee:	01 90       	ld	r0, Z+
     7f0:	0d 92       	st	X+, r0
     7f2:	8a 95       	dec	r24
     7f4:	e1 f7       	brne	.-8      	; 0x7ee <Clasificador_Task_Brazos_ms+0x82>

	// Recorremos los 3 eyectores independientes
	for (uint8_t i = 0; i < 3; i++) {
     7f6:	f1 2c       	mov	r15, r1
     7f8:	c4 c0       	rjmp	.+392    	; 0x982 <__stack+0x83>
		Clasificador_Eyector_t *b = &ctx->eyectores[i];
     7fa:	cf 2c       	mov	r12, r15
     7fc:	d1 2c       	mov	r13, r1
     7fe:	8d e1       	ldi	r24, 0x1D	; 29
     800:	8c 9d       	mul	r24, r12
     802:	90 01       	movw	r18, r0
     804:	8d 9d       	mul	r24, r13
     806:	30 0d       	add	r19, r0
     808:	11 24       	eor	r1, r1
     80a:	c9 01       	movw	r24, r18
     80c:	45 96       	adiw	r24, 0x15	; 21
     80e:	a8 01       	movw	r20, r16
     810:	48 0f       	add	r20, r24
     812:	59 1f       	adc	r21, r25

		switch (b->estado) {
     814:	f8 01       	movw	r30, r16
     816:	e2 0f       	add	r30, r18
     818:	f3 1f       	adc	r31, r19
     81a:	95 a5       	ldd	r25, Z+45	; 0x2d
     81c:	91 30       	cpi	r25, 0x01	; 1
     81e:	49 f0       	breq	.+18     	; 0x832 <__DATA_REGION_LENGTH__+0x32>
     820:	08 f4       	brcc	.+2      	; 0x824 <__DATA_REGION_LENGTH__+0x24>
     822:	ae c0       	rjmp	.+348    	; 0x980 <__stack+0x81>
     824:	92 30       	cpi	r25, 0x02	; 2
     826:	09 f4       	brne	.+2      	; 0x82a <__DATA_REGION_LENGTH__+0x2a>
     828:	3f c0       	rjmp	.+126    	; 0x8a8 <__DATA_REGION_LENGTH__+0xa8>
     82a:	93 30       	cpi	r25, 0x03	; 3
     82c:	09 f4       	brne	.+2      	; 0x830 <__DATA_REGION_LENGTH__+0x30>
     82e:	73 c0       	rjmp	.+230    	; 0x916 <__stack+0x17>
     830:	9e c0       	rjmp	.+316    	; 0x96e <__stack+0x6f>
			// No hay nada que hacer, el brazo está en reposo (0 grados)
			break;

			case EYECTOR_ESPERANDO_DELAY:
			// Incrementamos el tiempo transcurrido no bloqueante
			b->cronometro_ms += periodo_ms;
     832:	8d e1       	ldi	r24, 0x1D	; 29
     834:	8c 9d       	mul	r24, r12
     836:	f0 01       	movw	r30, r0
     838:	8d 9d       	mul	r24, r13
     83a:	f0 0d       	add	r31, r0
     83c:	11 24       	eor	r1, r1
     83e:	e0 0f       	add	r30, r16
     840:	f1 1f       	adc	r31, r17
     842:	86 a5       	ldd	r24, Z+46	; 0x2e
     844:	97 a5       	ldd	r25, Z+47	; 0x2f
     846:	a0 a9       	ldd	r26, Z+48	; 0x30
     848:	b1 a9       	ldd	r27, Z+49	; 0x31
     84a:	8e 0d       	add	r24, r14
     84c:	91 1d       	adc	r25, r1
     84e:	a1 1d       	adc	r26, r1
     850:	b1 1d       	adc	r27, r1
     852:	86 a7       	std	Z+46, r24	; 0x2e
     854:	97 a7       	std	Z+47, r25	; 0x2f
     856:	a0 ab       	std	Z+48, r26	; 0x30
     858:	b1 ab       	std	Z+49, r27	; 0x31
			
			// Si se cumplió el retraso programado por el usuario (ej: 1500 ms)
			if (b->cronometro_ms >= b->delay_post_deteccion_ms) {
     85a:	46 89       	ldd	r20, Z+22	; 0x16
     85c:	57 89       	ldd	r21, Z+23	; 0x17
     85e:	60 8d       	ldd	r22, Z+24	; 0x18
     860:	71 8d       	ldd	r23, Z+25	; 0x19
     862:	84 17       	cp	r24, r20
     864:	95 07       	cpc	r25, r21
     866:	a6 07       	cpc	r26, r22
     868:	b7 07       	cpc	r27, r23
     86a:	08 f4       	brcc	.+2      	; 0x86e <__DATA_REGION_LENGTH__+0x6e>
     86c:	89 c0       	rjmp	.+274    	; 0x980 <__stack+0x81>
				// ACCIÓN: Extendemos el servo a 90° para impactar la caja
				SG90_SetAngle(servos[i], 0U);
     86e:	f6 01       	movw	r30, r12
     870:	ee 0f       	add	r30, r30
     872:	ff 1f       	adc	r31, r31
     874:	81 e0       	ldi	r24, 0x01	; 1
     876:	90 e0       	ldi	r25, 0x00	; 0
     878:	8c 0f       	add	r24, r28
     87a:	9d 1f       	adc	r25, r29
     87c:	e8 0f       	add	r30, r24
     87e:	f9 1f       	adc	r31, r25
     880:	60 e0       	ldi	r22, 0x00	; 0
     882:	80 81       	ld	r24, Z
     884:	91 81       	ldd	r25, Z+1	; 0x01
     886:	0e 94 7a 11 	call	0x22f4	; 0x22f4 <SG90_SetAngle>
				

				
				// Transición al estado de impacto
				b->cronometro_ms = 0UL;
     88a:	8d e1       	ldi	r24, 0x1D	; 29
     88c:	8c 9d       	mul	r24, r12
     88e:	f0 01       	movw	r30, r0
     890:	8d 9d       	mul	r24, r13
     892:	f0 0d       	add	r31, r0
     894:	11 24       	eor	r1, r1
     896:	e0 0f       	add	r30, r16
     898:	f1 1f       	adc	r31, r17
     89a:	16 a6       	std	Z+46, r1	; 0x2e
     89c:	17 a6       	std	Z+47, r1	; 0x2f
     89e:	10 aa       	std	Z+48, r1	; 0x30
     8a0:	11 aa       	std	Z+49, r1	; 0x31
				b->estado = EYECTOR_PATEANDO;
     8a2:	82 e0       	ldi	r24, 0x02	; 2
     8a4:	85 a7       	std	Z+45, r24	; 0x2d
     8a6:	6c c0       	rjmp	.+216    	; 0x980 <__stack+0x81>
			}
			break;

			case EYECTOR_PATEANDO:
			b->cronometro_ms += periodo_ms;
     8a8:	8d e1       	ldi	r24, 0x1D	; 29
     8aa:	8c 9d       	mul	r24, r12
     8ac:	f0 01       	movw	r30, r0
     8ae:	8d 9d       	mul	r24, r13
     8b0:	f0 0d       	add	r31, r0
     8b2:	11 24       	eor	r1, r1
     8b4:	e0 0f       	add	r30, r16
     8b6:	f1 1f       	adc	r31, r17
     8b8:	86 a5       	ldd	r24, Z+46	; 0x2e
     8ba:	97 a5       	ldd	r25, Z+47	; 0x2f
     8bc:	a0 a9       	ldd	r26, Z+48	; 0x30
     8be:	b1 a9       	ldd	r27, Z+49	; 0x31
     8c0:	8e 0d       	add	r24, r14
     8c2:	91 1d       	adc	r25, r1
     8c4:	a1 1d       	adc	r26, r1
     8c6:	b1 1d       	adc	r27, r1
     8c8:	86 a7       	std	Z+46, r24	; 0x2e
     8ca:	97 a7       	std	Z+47, r25	; 0x2f
     8cc:	a0 ab       	std	Z+48, r26	; 0x30
     8ce:	b1 ab       	std	Z+49, r27	; 0x31
			
			// Dejamos el brazo afuera el tiempo configurado para el arrastre (400 ms)
			if (b->cronometro_ms >= CLASIFICADOR_BRAZO_ACTUACION_MS) {
     8d0:	80 39       	cpi	r24, 0x90	; 144
     8d2:	91 40       	sbci	r25, 0x01	; 1
     8d4:	a1 05       	cpc	r26, r1
     8d6:	b1 05       	cpc	r27, r1
     8d8:	08 f4       	brcc	.+2      	; 0x8dc <__DATA_REGION_LENGTH__+0xdc>
     8da:	52 c0       	rjmp	.+164    	; 0x980 <__stack+0x81>
				// ACCIÓN: Retraemos el servo a su posición inicial segura (0°)
				SG90_SetAngle(servos[i], 90U);
     8dc:	f6 01       	movw	r30, r12
     8de:	ee 0f       	add	r30, r30
     8e0:	ff 1f       	adc	r31, r31
     8e2:	81 e0       	ldi	r24, 0x01	; 1
     8e4:	90 e0       	ldi	r25, 0x00	; 0
     8e6:	8c 0f       	add	r24, r28
     8e8:	9d 1f       	adc	r25, r29
     8ea:	e8 0f       	add	r30, r24
     8ec:	f9 1f       	adc	r31, r25
     8ee:	6a e5       	ldi	r22, 0x5A	; 90
     8f0:	80 81       	ld	r24, Z
     8f2:	91 81       	ldd	r25, Z+1	; 0x01
     8f4:	0e 94 7a 11 	call	0x22f4	; 0x22f4 <SG90_SetAngle>

				// Transición al estado de retorno
				b->cronometro_ms = 0UL;
     8f8:	8d e1       	ldi	r24, 0x1D	; 29
     8fa:	8c 9d       	mul	r24, r12
     8fc:	f0 01       	movw	r30, r0
     8fe:	8d 9d       	mul	r24, r13
     900:	f0 0d       	add	r31, r0
     902:	11 24       	eor	r1, r1
     904:	e0 0f       	add	r30, r16
     906:	f1 1f       	adc	r31, r17
     908:	16 a6       	std	Z+46, r1	; 0x2e
     90a:	17 a6       	std	Z+47, r1	; 0x2f
     90c:	10 aa       	std	Z+48, r1	; 0x30
     90e:	11 aa       	std	Z+49, r1	; 0x31
				b->estado = EYECTOR_RETRAYENDO;
     910:	83 e0       	ldi	r24, 0x03	; 3
     912:	85 a7       	std	Z+45, r24	; 0x2d
     914:	35 c0       	rjmp	.+106    	; 0x980 <__stack+0x81>
			}
			break;

			case EYECTOR_RETRAYENDO:
			b->cronometro_ms += periodo_ms;
     916:	8d e1       	ldi	r24, 0x1D	; 29
     918:	8c 9d       	mul	r24, r12
     91a:	f0 01       	movw	r30, r0
     91c:	8d 9d       	mul	r24, r13
     91e:	f0 0d       	add	r31, r0
     920:	11 24       	eor	r1, r1
     922:	e0 0f       	add	r30, r16
     924:	f1 1f       	adc	r31, r17
     926:	86 a5       	ldd	r24, Z+46	; 0x2e
     928:	97 a5       	ldd	r25, Z+47	; 0x2f
     92a:	a0 a9       	ldd	r26, Z+48	; 0x30
     92c:	b1 a9       	ldd	r27, Z+49	; 0x31
     92e:	8e 0d       	add	r24, r14
     930:	91 1d       	adc	r25, r1
     932:	a1 1d       	adc	r26, r1
     934:	b1 1d       	adc	r27, r1
     936:	86 a7       	std	Z+46, r24	; 0x2e
     938:	97 a7       	std	Z+47, r25	; 0x2f
     93a:	a0 ab       	std	Z+48, r26	; 0x30
     93c:	b1 ab       	std	Z+49, r27	; 0x31
			
			// Esperamos un tiempo prudencial (ej: 200 ms) para asegurar que el brazo físico volvió a 0°
			// antes de liberar la cola y permitir que el sensor acepte una nueva caja
			if (b->cronometro_ms >= 200U) {
     93e:	88 3c       	cpi	r24, 0xC8	; 200
     940:	91 05       	cpc	r25, r1
     942:	a1 05       	cpc	r26, r1
     944:	b1 05       	cpc	r27, r1
     946:	e0 f0       	brcs	.+56     	; 0x980 <__stack+0x81>
				// CRÍTICO: La caja ya fue eyectada con éxito, la removemos del frente de la FIFO (Pop)
				Clasificador_PopFIFO(b);
     948:	ca 01       	movw	r24, r20
     94a:	0e 94 43 01 	call	0x286	; 0x286 <Clasificador_PopFIFO>
				
				// ˇNUEVO!: Le avisamos a la HMI que el brazo sacó esta caja de la cinta
				Tracker_CajaEyectada(b->caja_asignada);
     94e:	2d e1       	ldi	r18, 0x1D	; 29
     950:	2c 9d       	mul	r18, r12
     952:	c0 01       	movw	r24, r0
     954:	2d 9d       	mul	r18, r13
     956:	90 0d       	add	r25, r0
     958:	11 24       	eor	r1, r1
     95a:	68 01       	movw	r12, r16
     95c:	c8 0e       	add	r12, r24
     95e:	d9 1e       	adc	r13, r25
     960:	f6 01       	movw	r30, r12
     962:	85 89       	ldd	r24, Z+21	; 0x15
     964:	0e 94 aa 12 	call	0x2554	; 0x2554 <Tracker_CajaEyectada>
				
				// El eyector vuelve a quedar libre para la próxima caja asignada
				b->estado = EYECTOR_IDLE;
     968:	f6 01       	movw	r30, r12
     96a:	15 a6       	std	Z+45, r1	; 0x2d
     96c:	09 c0       	rjmp	.+18     	; 0x980 <__stack+0x81>
			}
			break;

			default:
			b->estado = EYECTOR_IDLE;
     96e:	8d e1       	ldi	r24, 0x1D	; 29
     970:	8c 9d       	mul	r24, r12
     972:	f0 01       	movw	r30, r0
     974:	8d 9d       	mul	r24, r13
     976:	f0 0d       	add	r31, r0
     978:	11 24       	eor	r1, r1
     97a:	e0 0f       	add	r30, r16
     97c:	f1 1f       	adc	r31, r17
     97e:	15 a6       	std	Z+45, r1	; 0x2d

	// Vector auxiliar para poder indexar y apuntar a tus 3 estructuras de servos globales
	SG90_t *servos[3] = {&servo1, &servo2, &servo3};

	// Recorremos los 3 eyectores independientes
	for (uint8_t i = 0; i < 3; i++) {
     980:	f3 94       	inc	r15
     982:	f2 e0       	ldi	r31, 0x02	; 2
     984:	ff 15       	cp	r31, r15
     986:	08 f0       	brcs	.+2      	; 0x98a <__stack+0x8b>
     988:	38 cf       	rjmp	.-400    	; 0x7fa <Clasificador_Task_Brazos_ms+0x8e>
			default:
			b->estado = EYECTOR_IDLE;
			break;
		}
	}
}
     98a:	26 96       	adiw	r28, 0x06	; 6
     98c:	0f b6       	in	r0, 0x3f	; 63
     98e:	f8 94       	cli
     990:	de bf       	out	0x3e, r29	; 62
     992:	0f be       	out	0x3f, r0	; 63
     994:	cd bf       	out	0x3d, r28	; 61
     996:	df 91       	pop	r29
     998:	cf 91       	pop	r28
     99a:	1f 91       	pop	r17
     99c:	0f 91       	pop	r16
     99e:	ff 90       	pop	r15
     9a0:	ef 90       	pop	r14
     9a2:	df 90       	pop	r13
     9a4:	cf 90       	pop	r12
     9a6:	08 95       	ret

000009a8 <Clasificador_ConfigurarUmbrales>:
/**
 * @brief Permite reconfigurar dinámicamente los umbrales de las cajas (en mm) desde el HMI.
 */
void Clasificador_ConfigurarUmbrales(Clasificador_Ctrl_t *ctx, float chica, float mediana, float grande, float tolerancia) {
     9a8:	4f 92       	push	r4
     9aa:	5f 92       	push	r5
     9ac:	6f 92       	push	r6
     9ae:	7f 92       	push	r7
     9b0:	8f 92       	push	r8
     9b2:	9f 92       	push	r9
     9b4:	af 92       	push	r10
     9b6:	bf 92       	push	r11
     9b8:	cf 92       	push	r12
     9ba:	df 92       	push	r13
     9bc:	ef 92       	push	r14
     9be:	ff 92       	push	r15
     9c0:	0f 93       	push	r16
     9c2:	1f 93       	push	r17
     9c4:	cf 93       	push	r28
     9c6:	df 93       	push	r29
     9c8:	00 d0       	rcall	.+0      	; 0x9ca <Clasificador_ConfigurarUmbrales+0x22>
     9ca:	00 d0       	rcall	.+0      	; 0x9cc <Clasificador_ConfigurarUmbrales+0x24>
     9cc:	cd b7       	in	r28, 0x3d	; 61
     9ce:	de b7       	in	r29, 0x3e	; 62
	if (ctx == (void*)0) return;
     9d0:	00 97       	sbiw	r24, 0x00	; 0
     9d2:	09 f4       	brne	.+2      	; 0x9d6 <Clasificador_ConfigurarUmbrales+0x2e>
     9d4:	49 c0       	rjmp	.+146    	; 0xa68 <Clasificador_ConfigurarUmbrales+0xc0>
     9d6:	28 01       	movw	r4, r16
     9d8:	39 01       	movw	r6, r18
     9da:	49 83       	std	Y+1, r20	; 0x01
     9dc:	5a 83       	std	Y+2, r21	; 0x02
     9de:	6b 83       	std	Y+3, r22	; 0x03
     9e0:	7c 83       	std	Y+4, r23	; 0x04
     9e2:	8c 01       	movw	r16, r24
	
	if (chica > 0.0f)   ctx->config_cajas.umbral_chica_mm   = chica;
     9e4:	20 e0       	ldi	r18, 0x00	; 0
     9e6:	30 e0       	ldi	r19, 0x00	; 0
     9e8:	a9 01       	movw	r20, r18
     9ea:	69 81       	ldd	r22, Y+1	; 0x01
     9ec:	7a 81       	ldd	r23, Y+2	; 0x02
     9ee:	8b 81       	ldd	r24, Y+3	; 0x03
     9f0:	9c 81       	ldd	r25, Y+4	; 0x04
     9f2:	0e 94 ca 14 	call	0x2994	; 0x2994 <__gesf2>
     9f6:	18 16       	cp	r1, r24
     9f8:	4c f4       	brge	.+18     	; 0xa0c <Clasificador_ConfigurarUmbrales+0x64>
     9fa:	89 81       	ldd	r24, Y+1	; 0x01
     9fc:	9a 81       	ldd	r25, Y+2	; 0x02
     9fe:	ab 81       	ldd	r26, Y+3	; 0x03
     a00:	bc 81       	ldd	r27, Y+4	; 0x04
     a02:	f8 01       	movw	r30, r16
     a04:	85 83       	std	Z+5, r24	; 0x05
     a06:	96 83       	std	Z+6, r25	; 0x06
     a08:	a7 83       	std	Z+7, r26	; 0x07
     a0a:	b0 87       	std	Z+8, r27	; 0x08
	if (mediana > 0.0f) ctx->config_cajas.umbral_mediana_mm = mediana;
     a0c:	20 e0       	ldi	r18, 0x00	; 0
     a0e:	30 e0       	ldi	r19, 0x00	; 0
     a10:	a9 01       	movw	r20, r18
     a12:	c3 01       	movw	r24, r6
     a14:	b2 01       	movw	r22, r4
     a16:	0e 94 ca 14 	call	0x2994	; 0x2994 <__gesf2>
     a1a:	18 16       	cp	r1, r24
     a1c:	3c f4       	brge	.+14     	; 0xa2c <Clasificador_ConfigurarUmbrales+0x84>
     a1e:	d8 01       	movw	r26, r16
     a20:	19 96       	adiw	r26, 0x09	; 9
     a22:	4d 92       	st	X+, r4
     a24:	5d 92       	st	X+, r5
     a26:	6d 92       	st	X+, r6
     a28:	7c 92       	st	X, r7
     a2a:	1c 97       	sbiw	r26, 0x0c	; 12
	if (grande > 0.0f)  ctx->config_cajas.umbral_grande_mm  = grande;
     a2c:	20 e0       	ldi	r18, 0x00	; 0
     a2e:	30 e0       	ldi	r19, 0x00	; 0
     a30:	a9 01       	movw	r20, r18
     a32:	c7 01       	movw	r24, r14
     a34:	b6 01       	movw	r22, r12
     a36:	0e 94 ca 14 	call	0x2994	; 0x2994 <__gesf2>
     a3a:	18 16       	cp	r1, r24
     a3c:	2c f4       	brge	.+10     	; 0xa48 <Clasificador_ConfigurarUmbrales+0xa0>
     a3e:	f8 01       	movw	r30, r16
     a40:	c5 86       	std	Z+13, r12	; 0x0d
     a42:	d6 86       	std	Z+14, r13	; 0x0e
     a44:	e7 86       	std	Z+15, r14	; 0x0f
     a46:	f0 8a       	std	Z+16, r15	; 0x10
	if (tolerancia > 0.0f) ctx->config_cajas.tolerancia_mm  = tolerancia;
     a48:	20 e0       	ldi	r18, 0x00	; 0
     a4a:	30 e0       	ldi	r19, 0x00	; 0
     a4c:	a9 01       	movw	r20, r18
     a4e:	c5 01       	movw	r24, r10
     a50:	b4 01       	movw	r22, r8
     a52:	0e 94 ca 14 	call	0x2994	; 0x2994 <__gesf2>
     a56:	18 16       	cp	r1, r24
     a58:	3c f4       	brge	.+14     	; 0xa68 <Clasificador_ConfigurarUmbrales+0xc0>
     a5a:	d8 01       	movw	r26, r16
     a5c:	51 96       	adiw	r26, 0x11	; 17
     a5e:	8d 92       	st	X+, r8
     a60:	9d 92       	st	X+, r9
     a62:	ad 92       	st	X+, r10
     a64:	bc 92       	st	X, r11
     a66:	54 97       	sbiw	r26, 0x14	; 20
}
     a68:	0f 90       	pop	r0
     a6a:	0f 90       	pop	r0
     a6c:	0f 90       	pop	r0
     a6e:	0f 90       	pop	r0
     a70:	df 91       	pop	r29
     a72:	cf 91       	pop	r28
     a74:	1f 91       	pop	r17
     a76:	0f 91       	pop	r16
     a78:	ff 90       	pop	r15
     a7a:	ef 90       	pop	r14
     a7c:	df 90       	pop	r13
     a7e:	cf 90       	pop	r12
     a80:	bf 90       	pop	r11
     a82:	af 90       	pop	r10
     a84:	9f 90       	pop	r9
     a86:	8f 90       	pop	r8
     a88:	7f 90       	pop	r7
     a8a:	6f 90       	pop	r6
     a8c:	5f 90       	pop	r5
     a8e:	4f 90       	pop	r4
     a90:	08 95       	ret

00000a92 <Clasificador_ConfigurarEyector>:

/**
 * @brief Permite modificar dinámicamente el retraso o el tipo de caja asignado a un brazo eyector.
 */
void Clasificador_ConfigurarEyector(Clasificador_Ctrl_t *ctx, uint8_t indice_eyector, Clasificador_TipoCaja_t tipo_caja, uint32_t delay_ms) {
     a92:	0f 93       	push	r16
     a94:	1f 93       	push	r17
	if (ctx == (void*)0 || indice_eyector >= 3) return;
     a96:	00 97       	sbiw	r24, 0x00	; 0
     a98:	69 f0       	breq	.+26     	; 0xab4 <Clasificador_ConfigurarEyector+0x22>
     a9a:	63 30       	cpi	r22, 0x03	; 3
     a9c:	58 f4       	brcc	.+22     	; 0xab4 <Clasificador_ConfigurarEyector+0x22>
	
	ctx->eyectores[indice_eyector].caja_asignada = tipo_caja;
     a9e:	fc 01       	movw	r30, r24
     aa0:	5d e1       	ldi	r21, 0x1D	; 29
     aa2:	65 9f       	mul	r22, r21
     aa4:	e0 0d       	add	r30, r0
     aa6:	f1 1d       	adc	r31, r1
     aa8:	11 24       	eor	r1, r1
     aaa:	45 8b       	std	Z+21, r20	; 0x15
	ctx->eyectores[indice_eyector].delay_post_deteccion_ms = delay_ms;
     aac:	06 8b       	std	Z+22, r16	; 0x16
     aae:	17 8b       	std	Z+23, r17	; 0x17
     ab0:	20 8f       	std	Z+24, r18	; 0x18
     ab2:	31 8f       	std	Z+25, r19	; 0x19
}
     ab4:	1f 91       	pop	r17
     ab6:	0f 91       	pop	r16
     ab8:	08 95       	ret

00000aba <Clasificador_ConfigurarPiso>:
/**
 * @brief Permite reconfigurar o calibrar únicamente la distancia al piso en mm.
 */
void Clasificador_ConfigurarPiso(Clasificador_Ctrl_t *ctx, float distancia_piso_mm) {
     aba:	cf 92       	push	r12
     abc:	df 92       	push	r13
     abe:	ef 92       	push	r14
     ac0:	ff 92       	push	r15
     ac2:	cf 93       	push	r28
     ac4:	df 93       	push	r29
	if (ctx == (void*)0) return;
     ac6:	00 97       	sbiw	r24, 0x00	; 0
     ac8:	81 f0       	breq	.+32     	; 0xaea <Clasificador_ConfigurarPiso+0x30>
     aca:	6a 01       	movw	r12, r20
     acc:	7b 01       	movw	r14, r22
     ace:	ec 01       	movw	r28, r24
	
	if (distancia_piso_mm > 0.0f) {
     ad0:	20 e0       	ldi	r18, 0x00	; 0
     ad2:	30 e0       	ldi	r19, 0x00	; 0
     ad4:	a9 01       	movw	r20, r18
     ad6:	c7 01       	movw	r24, r14
     ad8:	b6 01       	movw	r22, r12
     ada:	0e 94 ca 14 	call	0x2994	; 0x2994 <__gesf2>
     ade:	18 16       	cp	r1, r24
     ae0:	24 f4       	brge	.+8      	; 0xaea <Clasificador_ConfigurarPiso+0x30>
		ctx->config_cajas.distancia_piso_mm = distancia_piso_mm;
     ae2:	c9 82       	std	Y+1, r12	; 0x01
     ae4:	da 82       	std	Y+2, r13	; 0x02
     ae6:	eb 82       	std	Y+3, r14	; 0x03
     ae8:	fc 82       	std	Y+4, r15	; 0x04
	}
}
     aea:	df 91       	pop	r29
     aec:	cf 91       	pop	r28
     aee:	ff 90       	pop	r15
     af0:	ef 90       	pop	r14
     af2:	df 90       	pop	r13
     af4:	cf 90       	pop	r12
     af6:	08 95       	ret

00000af8 <Clasificador_IniciarCalibracionManual>:
/**
 * @brief Inicia el proceso de calibración manual a pedido de la HMI.
 */
void Clasificador_IniciarCalibracionManual(Clasificador_Ctrl_t *ctx, uint8_t cmd_origen) {
	if (ctx == (void*)0) return;
     af8:	00 97       	sbiw	r24, 0x00	; 0
     afa:	89 f0       	breq	.+34     	; 0xb1e <Clasificador_IniciarCalibracionManual+0x26>
	
	// Configura la mini máquina de estados interna
	ctx->estado_master = ESTADO_CALIBRACION_MANUAL;
     afc:	23 e0       	ldi	r18, 0x03	; 3
     afe:	fc 01       	movw	r30, r24
     b00:	20 83       	st	Z, r18
	ctx->calib_muestras_restantes = 5U; // Queremos 5 mediciones exactas
     b02:	ec 58       	subi	r30, 0x8C	; 140
     b04:	ff 4f       	sbci	r31, 0xFF	; 255
     b06:	25 e0       	ldi	r18, 0x05	; 5
     b08:	20 83       	st	Z, r18
	ctx->calib_suma_mm = 0UL;
     b0a:	31 96       	adiw	r30, 0x01	; 1
     b0c:	10 82       	st	Z, r1
     b0e:	11 82       	std	Z+1, r1	; 0x01
     b10:	12 82       	std	Z+2, r1	; 0x02
     b12:	13 82       	std	Z+3, r1	; 0x03
	ctx->calib_comando_origen = cmd_origen;
     b14:	34 96       	adiw	r30, 0x04	; 4
     b16:	60 83       	st	Z, r22
	ctx->calib_timer_retrigger_ms = 0U;
     b18:	31 96       	adiw	r30, 0x01	; 1
	
	// Forzamos el primer disparo del ultrasonido para arrancar la cadena
	// Nota: Como no tenemos el handle de g_hcsr04 acá, dejamos que el evento se dispare.
	// Para cumplir con la arquitectura, declaramos un extern o usamos tu instancia global:
	ctx->calib_timer_retrigger_ms = 60U;
     b1a:	2c e3       	ldi	r18, 0x3C	; 60
     b1c:	20 83       	st	Z, r18
     b1e:	08 95       	ret

00000b20 <Comandos_ParserCallback>:
	if (clasificador_ctx == (void*)0) return;
	_clasificador = clasificador_ctx;
	Protocolo_SetCmdParser(Comandos_ParserCallback);
}

static void Comandos_ParserCallback(uint8_t cmd, uint8_t* params, uint8_t len) {
     b20:	6f 92       	push	r6
     b22:	7f 92       	push	r7
     b24:	8f 92       	push	r8
     b26:	9f 92       	push	r9
     b28:	af 92       	push	r10
     b2a:	bf 92       	push	r11
     b2c:	cf 92       	push	r12
     b2e:	df 92       	push	r13
     b30:	ef 92       	push	r14
     b32:	ff 92       	push	r15
     b34:	0f 93       	push	r16
     b36:	1f 93       	push	r17
     b38:	cf 93       	push	r28
     b3a:	df 93       	push	r29
     b3c:	cd b7       	in	r28, 0x3d	; 61
     b3e:	de b7       	in	r29, 0x3e	; 62
     b40:	2d 97       	sbiw	r28, 0x0d	; 13
     b42:	0f b6       	in	r0, 0x3f	; 63
     b44:	f8 94       	cli
     b46:	de bf       	out	0x3e, r29	; 62
     b48:	0f be       	out	0x3f, r0	; 63
     b4a:	cd bf       	out	0x3d, r28	; 61
	if (_clasificador == (void*)0) return;
     b4c:	e0 91 0c 01 	lds	r30, 0x010C	; 0x80010c <__data_end>
     b50:	f0 91 0d 01 	lds	r31, 0x010D	; 0x80010d <__data_end+0x1>
     b54:	30 97       	sbiw	r30, 0x00	; 0
     b56:	09 f4       	brne	.+2      	; 0xb5a <Comandos_ParserCallback+0x3a>
     b58:	63 c1       	rjmp	.+710    	; 0xe20 <Comandos_ParserCallback+0x300>
     b5a:	14 2f       	mov	r17, r20
     b5c:	7b 01       	movw	r14, r22
     b5e:	78 2e       	mov	r7, r24

	uint8_t comando_valido = 1U;

	// 1. EVALUAR COMANDOS OPERATIVOS (Se permiten en cualquier momento)
	switch (cmd) {
     b60:	82 e0       	ldi	r24, 0x02	; 2
     b62:	78 16       	cp	r7, r24
     b64:	49 f1       	breq	.+82     	; 0xbb8 <Comandos_ParserCallback+0x98>
     b66:	83 e0       	ldi	r24, 0x03	; 3
     b68:	78 16       	cp	r7, r24
     b6a:	a1 f0       	breq	.+40     	; 0xb94 <Comandos_ParserCallback+0x74>
     b6c:	81 e0       	ldi	r24, 0x01	; 1
     b6e:	78 12       	cpse	r7, r24
     b70:	2e c0       	rjmp	.+92     	; 0xbce <Comandos_ParserCallback+0xae>
		case CMD_START_SISTEMA:
		// Si ya estaba en modo normal, ignoramos para no reiniciar variables
		if (_clasificador->estado_master == ESTADO_APAGADO) {
     b72:	80 81       	ld	r24, Z
     b74:	81 11       	cpse	r24, r1
     b76:	35 c0       	rjmp	.+106    	; 0xbe2 <Comandos_ParserCallback+0xc2>
			Ciego_ComandoActivar(&mi_modo_ciego, 0U);
     b78:	60 e0       	ldi	r22, 0x00	; 0
     b7a:	88 ec       	ldi	r24, 0xC8	; 200
     b7c:	91 e0       	ldi	r25, 0x01	; 1
     b7e:	0e 94 bc 08 	call	0x1178	; 0x1178 <Ciego_ComandoActivar>
			Clasificador_ComandoInicio(_clasificador);
     b82:	80 91 0c 01 	lds	r24, 0x010C	; 0x80010c <__data_end>
     b86:	90 91 0d 01 	lds	r25, 0x010D	; 0x80010d <__data_end+0x1>
     b8a:	0e 94 01 02 	call	0x402	; 0x402 <Clasificador_ComandoInicio>
}

static void Comandos_ParserCallback(uint8_t cmd, uint8_t* params, uint8_t len) {
	if (_clasificador == (void*)0) return;

	uint8_t comando_valido = 1U;
     b8e:	66 24       	eor	r6, r6
     b90:	63 94       	inc	r6
     b92:	30 c0       	rjmp	.+96     	; 0xbf4 <Comandos_ParserCallback+0xd4>
		}
		break;
		
		case CMD_START_CIEGO:
		// Solo permitimos arrancar el Modo Ciego si la máquina venía de estar apagada
		if (_clasificador->estado_master == ESTADO_APAGADO && !mi_modo_ciego.activo) {
     b94:	80 81       	ld	r24, Z
     b96:	81 11       	cpse	r24, r1
     b98:	26 c0       	rjmp	.+76     	; 0xbe6 <Comandos_ParserCallback+0xc6>
     b9a:	80 91 c8 01 	lds	r24, 0x01C8	; 0x8001c8 <mi_modo_ciego>
     b9e:	81 11       	cpse	r24, r1
     ba0:	24 c0       	rjmp	.+72     	; 0xbea <Comandos_ParserCallback+0xca>
			Clasificador_ComandoParada(_clasificador);
     ba2:	cf 01       	movw	r24, r30
     ba4:	0e 94 18 02 	call	0x430	; 0x430 <Clasificador_ComandoParada>
			Ciego_ComandoActivar(&mi_modo_ciego, 1U);
     ba8:	61 e0       	ldi	r22, 0x01	; 1
     baa:	88 ec       	ldi	r24, 0xC8	; 200
     bac:	91 e0       	ldi	r25, 0x01	; 1
     bae:	0e 94 bc 08 	call	0x1178	; 0x1178 <Ciego_ComandoActivar>
}

static void Comandos_ParserCallback(uint8_t cmd, uint8_t* params, uint8_t len) {
	if (_clasificador == (void*)0) return;

	uint8_t comando_valido = 1U;
     bb2:	66 24       	eor	r6, r6
     bb4:	63 94       	inc	r6
		
		case CMD_START_CIEGO:
		// Solo permitimos arrancar el Modo Ciego si la máquina venía de estar apagada
		if (_clasificador->estado_master == ESTADO_APAGADO && !mi_modo_ciego.activo) {
			Clasificador_ComandoParada(_clasificador);
			Ciego_ComandoActivar(&mi_modo_ciego, 1U);
     bb6:	1e c0       	rjmp	.+60     	; 0xbf4 <Comandos_ParserCallback+0xd4>
			comando_valido = 0U;
		}
		break;

		case CMD_STOP_SISTEMA:
		Clasificador_ComandoParada(_clasificador);
     bb8:	cf 01       	movw	r24, r30
     bba:	0e 94 18 02 	call	0x430	; 0x430 <Clasificador_ComandoParada>
		Ciego_ComandoActivar(&mi_modo_ciego, 0U);
     bbe:	60 e0       	ldi	r22, 0x00	; 0
     bc0:	88 ec       	ldi	r24, 0xC8	; 200
     bc2:	91 e0       	ldi	r25, 0x01	; 1
     bc4:	0e 94 bc 08 	call	0x1178	; 0x1178 <Ciego_ComandoActivar>
}

static void Comandos_ParserCallback(uint8_t cmd, uint8_t* params, uint8_t len) {
	if (_clasificador == (void*)0) return;

	uint8_t comando_valido = 1U;
     bc8:	66 24       	eor	r6, r6
     bca:	63 94       	inc	r6
		break;

		case CMD_STOP_SISTEMA:
		Clasificador_ComandoParada(_clasificador);
		Ciego_ComandoActivar(&mi_modo_ciego, 0U);
		break;
     bcc:	13 c0       	rjmp	.+38     	; 0xbf4 <Comandos_ParserCallback+0xd4>
		
		default:
		// 2. FILTRO DE SEGURIDAD GENERAL PARA CONFIGURACIONES
		// Si no es un botón de arranque/parada, obligatoriamente debe estar APAGADO
		if (_clasificador->estado_master != ESTADO_APAGADO || mi_modo_ciego.activo) {
     bce:	80 81       	ld	r24, Z
     bd0:	81 11       	cpse	r24, r1
     bd2:	0d c0       	rjmp	.+26     	; 0xbee <Comandos_ParserCallback+0xce>
     bd4:	80 91 c8 01 	lds	r24, 0x01C8	; 0x8001c8 <mi_modo_ciego>
     bd8:	81 11       	cpse	r24, r1
     bda:	0b c0       	rjmp	.+22     	; 0xbf2 <Comandos_ParserCallback+0xd2>
}

static void Comandos_ParserCallback(uint8_t cmd, uint8_t* params, uint8_t len) {
	if (_clasificador == (void*)0) return;

	uint8_t comando_valido = 1U;
     bdc:	66 24       	eor	r6, r6
     bde:	63 94       	inc	r6
     be0:	09 c0       	rjmp	.+18     	; 0xbf4 <Comandos_ParserCallback+0xd4>
		// Si ya estaba en modo normal, ignoramos para no reiniciar variables
		if (_clasificador->estado_master == ESTADO_APAGADO) {
			Ciego_ComandoActivar(&mi_modo_ciego, 0U);
			Clasificador_ComandoInicio(_clasificador);
			} else {
			comando_valido = 0U; // No corresponde ACK si ya estaba corriendo
     be2:	61 2c       	mov	r6, r1
     be4:	07 c0       	rjmp	.+14     	; 0xbf4 <Comandos_ParserCallback+0xd4>
		// Solo permitimos arrancar el Modo Ciego si la máquina venía de estar apagada
		if (_clasificador->estado_master == ESTADO_APAGADO && !mi_modo_ciego.activo) {
			Clasificador_ComandoParada(_clasificador);
			Ciego_ComandoActivar(&mi_modo_ciego, 1U);
			} else {
			comando_valido = 0U;
     be6:	61 2c       	mov	r6, r1
     be8:	05 c0       	rjmp	.+10     	; 0xbf4 <Comandos_ParserCallback+0xd4>
     bea:	61 2c       	mov	r6, r1
     bec:	03 c0       	rjmp	.+6      	; 0xbf4 <Comandos_ParserCallback+0xd4>
		
		default:
		// 2. FILTRO DE SEGURIDAD GENERAL PARA CONFIGURACIONES
		// Si no es un botón de arranque/parada, obligatoriamente debe estar APAGADO
		if (_clasificador->estado_master != ESTADO_APAGADO || mi_modo_ciego.activo) {
			comando_valido = 0U;
     bee:	61 2c       	mov	r6, r1
     bf0:	01 c0       	rjmp	.+2      	; 0xbf4 <Comandos_ParserCallback+0xd4>
     bf2:	61 2c       	mov	r6, r1
		}
		break;
	}

	// 3. PROCESAMIENTO DE CONFIGURACIONES (Solo si comando_valido sigue en 1)
	if (comando_valido) {
     bf4:	66 20       	and	r6, r6
     bf6:	09 f4       	brne	.+2      	; 0xbfa <Comandos_ParserCallback+0xda>
     bf8:	09 c1       	rjmp	.+530    	; 0xe0c <Comandos_ParserCallback+0x2ec>
		switch (cmd) {
     bfa:	87 2d       	mov	r24, r7
     bfc:	90 e0       	ldi	r25, 0x00	; 0
     bfe:	fc 01       	movw	r30, r24
     c00:	31 97       	sbiw	r30, 0x01	; 1
     c02:	e4 31       	cpi	r30, 0x14	; 20
     c04:	f1 05       	cpc	r31, r1
     c06:	08 f0       	brcs	.+2      	; 0xc0a <Comandos_ParserCallback+0xea>
     c08:	f8 c0       	rjmp	.+496    	; 0xdfa <Comandos_ParserCallback+0x2da>
     c0a:	ec 5c       	subi	r30, 0xCC	; 204
     c0c:	ff 4f       	sbci	r31, 0xFF	; 255
     c0e:	0c 94 5e 15 	jmp	0x2abc	; 0x2abc <__tablejump2__>
			case CMD_START_CIEGO:
			case CMD_STOP_SISTEMA:
			break;

			case CMD_SET_GEOMETRIA_CIEGA: // <--- CORREGIDO: Ahora está protegido bajo el ala del ESTADO_APAGADO
			if (len >= 5) {
     c12:	15 30       	cpi	r17, 0x05	; 5
     c14:	08 f4       	brcc	.+2      	; 0xc18 <Comandos_ParserCallback+0xf8>
     c16:	f3 c0       	rjmp	.+486    	; 0xdfe <Comandos_ParserCallback+0x2de>
				float largo_caja   = (float)params[0] * 10.0f;
     c18:	f7 01       	movw	r30, r14
     c1a:	60 81       	ld	r22, Z
     c1c:	70 e0       	ldi	r23, 0x00	; 0
     c1e:	80 e0       	ldi	r24, 0x00	; 0
     c20:	90 e0       	ldi	r25, 0x00	; 0
     c22:	0e 94 18 14 	call	0x2830	; 0x2830 <__floatunsisf>
     c26:	20 e0       	ldi	r18, 0x00	; 0
     c28:	30 e0       	ldi	r19, 0x00	; 0
     c2a:	40 e2       	ldi	r20, 0x20	; 32
     c2c:	51 e4       	ldi	r21, 0x41	; 65
     c2e:	0e 94 cf 14 	call	0x299e	; 0x299e <__mulsf3>
     c32:	6a 83       	std	Y+2, r22	; 0x02
     c34:	7b 83       	std	Y+3, r23	; 0x03
     c36:	8c 83       	std	Y+4, r24	; 0x04
     c38:	9d 83       	std	Y+5, r25	; 0x05
				float d0           = (float)params[1] * 10.0f;
     c3a:	f7 01       	movw	r30, r14
     c3c:	61 81       	ldd	r22, Z+1	; 0x01
     c3e:	70 e0       	ldi	r23, 0x00	; 0
     c40:	80 e0       	ldi	r24, 0x00	; 0
     c42:	90 e0       	ldi	r25, 0x00	; 0
     c44:	0e 94 18 14 	call	0x2830	; 0x2830 <__floatunsisf>
     c48:	20 e0       	ldi	r18, 0x00	; 0
     c4a:	30 e0       	ldi	r19, 0x00	; 0
     c4c:	40 e2       	ldi	r20, 0x20	; 32
     c4e:	51 e4       	ldi	r21, 0x41	; 65
     c50:	0e 94 cf 14 	call	0x299e	; 0x299e <__mulsf3>
     c54:	6e 83       	std	Y+6, r22	; 0x06
     c56:	7f 83       	std	Y+7, r23	; 0x07
     c58:	88 87       	std	Y+8, r24	; 0x08
     c5a:	99 87       	std	Y+9, r25	; 0x09
				float d1           = (float)params[2] * 10.0f;
     c5c:	f7 01       	movw	r30, r14
     c5e:	62 81       	ldd	r22, Z+2	; 0x02
     c60:	70 e0       	ldi	r23, 0x00	; 0
     c62:	80 e0       	ldi	r24, 0x00	; 0
     c64:	90 e0       	ldi	r25, 0x00	; 0
     c66:	0e 94 18 14 	call	0x2830	; 0x2830 <__floatunsisf>
     c6a:	20 e0       	ldi	r18, 0x00	; 0
     c6c:	30 e0       	ldi	r19, 0x00	; 0
     c6e:	40 e2       	ldi	r20, 0x20	; 32
     c70:	51 e4       	ldi	r21, 0x41	; 65
     c72:	0e 94 cf 14 	call	0x299e	; 0x299e <__mulsf3>
     c76:	6a 87       	std	Y+10, r22	; 0x0a
     c78:	7b 87       	std	Y+11, r23	; 0x0b
     c7a:	8c 87       	std	Y+12, r24	; 0x0c
     c7c:	9d 87       	std	Y+13, r25	; 0x0d
				float d2           = (float)params[3] * 10.0f;
     c7e:	f7 01       	movw	r30, r14
     c80:	63 81       	ldd	r22, Z+3	; 0x03
     c82:	70 e0       	ldi	r23, 0x00	; 0
     c84:	80 e0       	ldi	r24, 0x00	; 0
     c86:	90 e0       	ldi	r25, 0x00	; 0
     c88:	0e 94 18 14 	call	0x2830	; 0x2830 <__floatunsisf>
     c8c:	20 e0       	ldi	r18, 0x00	; 0
     c8e:	30 e0       	ldi	r19, 0x00	; 0
     c90:	40 e2       	ldi	r20, 0x20	; 32
     c92:	51 e4       	ldi	r21, 0x41	; 65
     c94:	0e 94 cf 14 	call	0x299e	; 0x299e <__mulsf3>
     c98:	4b 01       	movw	r8, r22
     c9a:	5c 01       	movw	r10, r24
				float offset_golpe = (float)params[4] * 10.0f;
     c9c:	f7 01       	movw	r30, r14
     c9e:	64 81       	ldd	r22, Z+4	; 0x04
     ca0:	70 e0       	ldi	r23, 0x00	; 0
     ca2:	80 e0       	ldi	r24, 0x00	; 0
     ca4:	90 e0       	ldi	r25, 0x00	; 0
     ca6:	0e 94 18 14 	call	0x2830	; 0x2830 <__floatunsisf>
     caa:	20 e0       	ldi	r18, 0x00	; 0
     cac:	30 e0       	ldi	r19, 0x00	; 0
     cae:	40 e2       	ldi	r20, 0x20	; 32
     cb0:	51 e4       	ldi	r21, 0x41	; 65
     cb2:	0e 94 cf 14 	call	0x299e	; 0x299e <__mulsf3>
				
				Ciego_ConfigurarGeometria(&mi_modo_ciego, largo_caja, d0, d1, d2, offset_golpe);
     cb6:	9f 93       	push	r25
     cb8:	8f 93       	push	r24
     cba:	7f 93       	push	r23
     cbc:	6f 93       	push	r22
     cbe:	ca 84       	ldd	r12, Y+10	; 0x0a
     cc0:	db 84       	ldd	r13, Y+11	; 0x0b
     cc2:	ec 84       	ldd	r14, Y+12	; 0x0c
     cc4:	fd 84       	ldd	r15, Y+13	; 0x0d
     cc6:	0e 81       	ldd	r16, Y+6	; 0x06
     cc8:	1f 81       	ldd	r17, Y+7	; 0x07
     cca:	28 85       	ldd	r18, Y+8	; 0x08
     ccc:	39 85       	ldd	r19, Y+9	; 0x09
     cce:	4a 81       	ldd	r20, Y+2	; 0x02
     cd0:	5b 81       	ldd	r21, Y+3	; 0x03
     cd2:	6c 81       	ldd	r22, Y+4	; 0x04
     cd4:	7d 81       	ldd	r23, Y+5	; 0x05
     cd6:	88 ec       	ldi	r24, 0xC8	; 200
     cd8:	91 e0       	ldi	r25, 0x01	; 1
     cda:	0e 94 23 08 	call	0x1046	; 0x1046 <Ciego_ConfigurarGeometria>
     cde:	0f 90       	pop	r0
     ce0:	0f 90       	pop	r0
     ce2:	0f 90       	pop	r0
     ce4:	0f 90       	pop	r0
     ce6:	92 c0       	rjmp	.+292    	; 0xe0c <Comandos_ParserCallback+0x2ec>
				comando_valido = 0U;
			}
			break;

			case CMD_SET_DELAYS:
			if (len >= 6) {
     ce8:	16 30       	cpi	r17, 0x06	; 6
     cea:	08 f4       	brcc	.+2      	; 0xcee <Comandos_ParserCallback+0x1ce>
     cec:	8a c0       	rjmp	.+276    	; 0xe02 <Comandos_ParserCallback+0x2e2>
				uint8_t idx       = params[0];
     cee:	f7 01       	movw	r30, r14
     cf0:	60 81       	ld	r22, Z
				uint8_t tipo_caja = params[1];
     cf2:	41 81       	ldd	r20, Z+1	; 0x01
				
				uint32_t delay_ms = ((uint32_t)params[2])        |
     cf4:	82 81       	ldd	r24, Z+2	; 0x02
				((uint32_t)params[3] << 8)  |
     cf6:	03 81       	ldd	r16, Z+3	; 0x03
     cf8:	10 e0       	ldi	r17, 0x00	; 0
     cfa:	20 e0       	ldi	r18, 0x00	; 0
     cfc:	30 e0       	ldi	r19, 0x00	; 0
     cfe:	32 2f       	mov	r19, r18
     d00:	21 2f       	mov	r18, r17
     d02:	10 2f       	mov	r17, r16
     d04:	00 27       	eor	r16, r16
			case CMD_SET_DELAYS:
			if (len >= 6) {
				uint8_t idx       = params[0];
				uint8_t tipo_caja = params[1];
				
				uint32_t delay_ms = ((uint32_t)params[2])        |
     d06:	08 2b       	or	r16, r24
				((uint32_t)params[3] << 8)  |
				((uint32_t)params[4] << 16) |
     d08:	84 81       	ldd	r24, Z+4	; 0x04
     d0a:	90 e0       	ldi	r25, 0x00	; 0
     d0c:	a0 e0       	ldi	r26, 0x00	; 0
     d0e:	b0 e0       	ldi	r27, 0x00	; 0
     d10:	dc 01       	movw	r26, r24
     d12:	99 27       	eor	r25, r25
     d14:	88 27       	eor	r24, r24
			if (len >= 6) {
				uint8_t idx       = params[0];
				uint8_t tipo_caja = params[1];
				
				uint32_t delay_ms = ((uint32_t)params[2])        |
				((uint32_t)params[3] << 8)  |
     d16:	08 2b       	or	r16, r24
     d18:	19 2b       	or	r17, r25
     d1a:	2a 2b       	or	r18, r26
     d1c:	3b 2b       	or	r19, r27
				((uint32_t)params[4] << 16) |
				((uint32_t)params[5] << 24);
     d1e:	85 81       	ldd	r24, Z+5	; 0x05
     d20:	90 e0       	ldi	r25, 0x00	; 0
     d22:	a0 e0       	ldi	r26, 0x00	; 0
     d24:	b0 e0       	ldi	r27, 0x00	; 0
     d26:	b8 2f       	mov	r27, r24
     d28:	aa 27       	eor	r26, r26
     d2a:	99 27       	eor	r25, r25
     d2c:	88 27       	eor	r24, r24
			case CMD_SET_DELAYS:
			if (len >= 6) {
				uint8_t idx       = params[0];
				uint8_t tipo_caja = params[1];
				
				uint32_t delay_ms = ((uint32_t)params[2])        |
     d2e:	08 2b       	or	r16, r24
     d30:	19 2b       	or	r17, r25
     d32:	2a 2b       	or	r18, r26
     d34:	3b 2b       	or	r19, r27
				((uint32_t)params[3] << 8)  |
				((uint32_t)params[4] << 16) |
				((uint32_t)params[5] << 24);
				
				Clasificador_ConfigurarEyector(_clasificador, idx, (Clasificador_TipoCaja_t)tipo_caja, delay_ms);
     d36:	80 91 0c 01 	lds	r24, 0x010C	; 0x80010c <__data_end>
     d3a:	90 91 0d 01 	lds	r25, 0x010D	; 0x80010d <__data_end+0x1>
     d3e:	0e 94 49 05 	call	0xa92	; 0xa92 <Clasificador_ConfigurarEyector>
     d42:	64 c0       	rjmp	.+200    	; 0xe0c <Comandos_ParserCallback+0x2ec>
				comando_valido = 0U;
			}
			break;

			case CMD_SET_UMBRALES:
			if (len >= 4) {
     d44:	14 30       	cpi	r17, 0x04	; 4
     d46:	08 f4       	brcc	.+2      	; 0xd4a <Comandos_ParserCallback+0x22a>
     d48:	5e c0       	rjmp	.+188    	; 0xe06 <Comandos_ParserCallback+0x2e6>
				float chica   = (float)params[0];
     d4a:	f7 01       	movw	r30, r14
     d4c:	60 81       	ld	r22, Z
     d4e:	70 e0       	ldi	r23, 0x00	; 0
     d50:	80 e0       	ldi	r24, 0x00	; 0
     d52:	90 e0       	ldi	r25, 0x00	; 0
     d54:	0e 94 18 14 	call	0x2830	; 0x2830 <__floatunsisf>
     d58:	6a 83       	std	Y+2, r22	; 0x02
     d5a:	7b 83       	std	Y+3, r23	; 0x03
     d5c:	8c 83       	std	Y+4, r24	; 0x04
     d5e:	9d 83       	std	Y+5, r25	; 0x05
				float mediana = (float)params[1];
     d60:	f7 01       	movw	r30, r14
     d62:	61 81       	ldd	r22, Z+1	; 0x01
     d64:	70 e0       	ldi	r23, 0x00	; 0
     d66:	80 e0       	ldi	r24, 0x00	; 0
     d68:	90 e0       	ldi	r25, 0x00	; 0
     d6a:	0e 94 18 14 	call	0x2830	; 0x2830 <__floatunsisf>
     d6e:	6e 83       	std	Y+6, r22	; 0x06
     d70:	7f 83       	std	Y+7, r23	; 0x07
     d72:	88 87       	std	Y+8, r24	; 0x08
     d74:	99 87       	std	Y+9, r25	; 0x09
				float grande  = (float)params[2];
     d76:	f7 01       	movw	r30, r14
     d78:	62 81       	ldd	r22, Z+2	; 0x02
     d7a:	70 e0       	ldi	r23, 0x00	; 0
     d7c:	80 e0       	ldi	r24, 0x00	; 0
     d7e:	90 e0       	ldi	r25, 0x00	; 0
     d80:	0e 94 18 14 	call	0x2830	; 0x2830 <__floatunsisf>
     d84:	6a 87       	std	Y+10, r22	; 0x0a
     d86:	7b 87       	std	Y+11, r23	; 0x0b
     d88:	8c 87       	std	Y+12, r24	; 0x0c
     d8a:	9d 87       	std	Y+13, r25	; 0x0d
				float tol     = (float)params[3];
     d8c:	f7 01       	movw	r30, r14
     d8e:	63 81       	ldd	r22, Z+3	; 0x03
     d90:	70 e0       	ldi	r23, 0x00	; 0
     d92:	80 e0       	ldi	r24, 0x00	; 0
     d94:	90 e0       	ldi	r25, 0x00	; 0
     d96:	0e 94 18 14 	call	0x2830	; 0x2830 <__floatunsisf>
     d9a:	4b 01       	movw	r8, r22
     d9c:	5c 01       	movw	r10, r24
				
				Clasificador_ConfigurarUmbrales(_clasificador, chica, mediana, grande, tol);
     d9e:	ca 84       	ldd	r12, Y+10	; 0x0a
     da0:	db 84       	ldd	r13, Y+11	; 0x0b
     da2:	ec 84       	ldd	r14, Y+12	; 0x0c
     da4:	fd 84       	ldd	r15, Y+13	; 0x0d
     da6:	0e 81       	ldd	r16, Y+6	; 0x06
     da8:	1f 81       	ldd	r17, Y+7	; 0x07
     daa:	28 85       	ldd	r18, Y+8	; 0x08
     dac:	39 85       	ldd	r19, Y+9	; 0x09
     dae:	4a 81       	ldd	r20, Y+2	; 0x02
     db0:	5b 81       	ldd	r21, Y+3	; 0x03
     db2:	6c 81       	ldd	r22, Y+4	; 0x04
     db4:	7d 81       	ldd	r23, Y+5	; 0x05
     db6:	80 91 0c 01 	lds	r24, 0x010C	; 0x80010c <__data_end>
     dba:	90 91 0d 01 	lds	r25, 0x010D	; 0x80010d <__data_end+0x1>
     dbe:	0e 94 d4 04 	call	0x9a8	; 0x9a8 <Clasificador_ConfigurarUmbrales>
     dc2:	24 c0       	rjmp	.+72     	; 0xe0c <Comandos_ParserCallback+0x2ec>
				comando_valido = 0U;
			}
			break;

			case CMD_SET_PISO:
			if (len >= 1) {
     dc4:	11 23       	and	r17, r17
     dc6:	09 f1       	breq	.+66     	; 0xe0a <Comandos_ParserCallback+0x2ea>
				float nuevo_piso = (float)params[0];
     dc8:	f7 01       	movw	r30, r14
     dca:	60 81       	ld	r22, Z
     dcc:	70 e0       	ldi	r23, 0x00	; 0
     dce:	80 e0       	ldi	r24, 0x00	; 0
     dd0:	90 e0       	ldi	r25, 0x00	; 0
     dd2:	0e 94 18 14 	call	0x2830	; 0x2830 <__floatunsisf>
     dd6:	ab 01       	movw	r20, r22
     dd8:	bc 01       	movw	r22, r24
				Clasificador_ConfigurarPiso(_clasificador, nuevo_piso);
     dda:	80 91 0c 01 	lds	r24, 0x010C	; 0x80010c <__data_end>
     dde:	90 91 0d 01 	lds	r25, 0x010D	; 0x80010d <__data_end+0x1>
     de2:	0e 94 5d 05 	call	0xaba	; 0xaba <Clasificador_ConfigurarPiso>
     de6:	12 c0       	rjmp	.+36     	; 0xe0c <Comandos_ParserCallback+0x2ec>
				comando_valido = 0U;
			}
			break;

			case CMD_MEDIR_CALIBRACION:
			Clasificador_IniciarCalibracionManual(_clasificador, cmd);
     de8:	67 2d       	mov	r22, r7
     dea:	80 91 0c 01 	lds	r24, 0x010C	; 0x80010c <__data_end>
     dee:	90 91 0d 01 	lds	r25, 0x010D	; 0x80010d <__data_end+0x1>
     df2:	0e 94 7c 05 	call	0xaf8	; 0xaf8 <Clasificador_IniciarCalibracionManual>
			comando_valido = 0U; // Responde con su propia trama de datos, no con ACK común
     df6:	61 2c       	mov	r6, r1
			break;
     df8:	09 c0       	rjmp	.+18     	; 0xe0c <Comandos_ParserCallback+0x2ec>

			default:
			comando_valido = 0U;
     dfa:	61 2c       	mov	r6, r1
     dfc:	07 c0       	rjmp	.+14     	; 0xe0c <Comandos_ParserCallback+0x2ec>
				float d2           = (float)params[3] * 10.0f;
				float offset_golpe = (float)params[4] * 10.0f;
				
				Ciego_ConfigurarGeometria(&mi_modo_ciego, largo_caja, d0, d1, d2, offset_golpe);
				} else {
				comando_valido = 0U;
     dfe:	61 2c       	mov	r6, r1
     e00:	05 c0       	rjmp	.+10     	; 0xe0c <Comandos_ParserCallback+0x2ec>
				((uint32_t)params[4] << 16) |
				((uint32_t)params[5] << 24);
				
				Clasificador_ConfigurarEyector(_clasificador, idx, (Clasificador_TipoCaja_t)tipo_caja, delay_ms);
				} else {
				comando_valido = 0U;
     e02:	61 2c       	mov	r6, r1
     e04:	03 c0       	rjmp	.+6      	; 0xe0c <Comandos_ParserCallback+0x2ec>
				float grande  = (float)params[2];
				float tol     = (float)params[3];
				
				Clasificador_ConfigurarUmbrales(_clasificador, chica, mediana, grande, tol);
				} else {
				comando_valido = 0U;
     e06:	61 2c       	mov	r6, r1
     e08:	01 c0       	rjmp	.+2      	; 0xe0c <Comandos_ParserCallback+0x2ec>
			case CMD_SET_PISO:
			if (len >= 1) {
				float nuevo_piso = (float)params[0];
				Clasificador_ConfigurarPiso(_clasificador, nuevo_piso);
				} else {
				comando_valido = 0U;
     e0a:	61 2c       	mov	r6, r1
			break;
		}
	}

	// 4. RESPUESTA DE SEGURIDAD
	if (comando_valido) {
     e0c:	66 20       	and	r6, r6
     e0e:	41 f0       	breq	.+16     	; 0xe20 <Comandos_ParserCallback+0x300>
		uint8_t payload_ack[1];
		payload_ack[0] = cmd;
     e10:	79 82       	std	Y+1, r7	; 0x01
		Encode(CMD_ACK, payload_ack, 1U);
     e12:	41 e0       	ldi	r20, 0x01	; 1
     e14:	be 01       	movw	r22, r28
     e16:	6f 5f       	subi	r22, 0xFF	; 255
     e18:	7f 4f       	sbci	r23, 0xFF	; 255
     e1a:	86 e0       	ldi	r24, 0x06	; 6
     e1c:	0e 94 dc 10 	call	0x21b8	; 0x21b8 <Encode>
	}
     e20:	2d 96       	adiw	r28, 0x0d	; 13
     e22:	0f b6       	in	r0, 0x3f	; 63
     e24:	f8 94       	cli
     e26:	de bf       	out	0x3e, r29	; 62
     e28:	0f be       	out	0x3f, r0	; 63
     e2a:	cd bf       	out	0x3d, r28	; 61
     e2c:	df 91       	pop	r29
     e2e:	cf 91       	pop	r28
     e30:	1f 91       	pop	r17
     e32:	0f 91       	pop	r16
     e34:	ff 90       	pop	r15
     e36:	ef 90       	pop	r14
     e38:	df 90       	pop	r13
     e3a:	cf 90       	pop	r12
     e3c:	bf 90       	pop	r11
     e3e:	af 90       	pop	r10
     e40:	9f 90       	pop	r9
     e42:	8f 90       	pop	r8
     e44:	7f 90       	pop	r7
     e46:	6f 90       	pop	r6
     e48:	08 95       	ret

00000e4a <Comandos_Init>:

static Clasificador_Ctrl_t *_clasificador = (void*)0;
static void Comandos_ParserCallback(uint8_t cmd, uint8_t* params, uint8_t len);

void Comandos_Init(Clasificador_Ctrl_t *clasificador_ctx) {
	if (clasificador_ctx == (void*)0) return;
     e4a:	00 97       	sbiw	r24, 0x00	; 0
     e4c:	41 f0       	breq	.+16     	; 0xe5e <Comandos_Init+0x14>
	_clasificador = clasificador_ctx;
     e4e:	90 93 0d 01 	sts	0x010D, r25	; 0x80010d <__data_end+0x1>
     e52:	80 93 0c 01 	sts	0x010C, r24	; 0x80010c <__data_end>
	Protocolo_SetCmdParser(Comandos_ParserCallback);
     e56:	80 e9       	ldi	r24, 0x90	; 144
     e58:	95 e0       	ldi	r25, 0x05	; 5
     e5a:	0e 94 42 10 	call	0x2084	; 0x2084 <Protocolo_SetCmdParser>
     e5e:	08 95       	ret

00000e60 <HCSR04_Init>:
#include "hcsr04.h"

	void HCSR04_Init(HCSR04_t *dev, hcsr04_pin_write_cb_t set_trig, hcsr04_result_cb_t on_result) {
     e60:	0f 93       	push	r16
     e62:	1f 93       	push	r17
     e64:	dc 01       	movw	r26, r24
		dev->set_trigger   = set_trig;
     e66:	11 96       	adiw	r26, 0x01	; 1
     e68:	7c 93       	st	X, r23
     e6a:	6e 93       	st	-X, r22
		dev->on_result     = on_result;
     e6c:	13 96       	adiw	r26, 0x03	; 3
     e6e:	5c 93       	st	X, r21
     e70:	4e 93       	st	-X, r20
     e72:	12 97       	sbiw	r26, 0x02	; 2
		dev->captura_lista = 0;
     e74:	18 96       	adiw	r26, 0x08	; 8
     e76:	1c 92       	st	X, r1
     e78:	18 97       	sbiw	r26, 0x08	; 8
		dev->esperando_eco = 0;
     e7a:	19 96       	adiw	r26, 0x09	; 9
     e7c:	1c 92       	st	X, r1
     e7e:	19 97       	sbiw	r26, 0x09	; 9
	
		dev->trig_pulse_us  = HCSR04_DEFAULT_TRIG_PULSE_US;
     e80:	8c e0       	ldi	r24, 0x0C	; 12
     e82:	90 e0       	ldi	r25, 0x00	; 0
     e84:	1c 96       	adiw	r26, 0x0c	; 12
     e86:	9c 93       	st	X, r25
     e88:	8e 93       	st	-X, r24
     e8a:	1b 97       	sbiw	r26, 0x0b	; 11
		dev->us_to_mm        = HCSR04_DEFAULT_US_TO_MM;
     e8c:	00 e2       	ldi	r16, 0x20	; 32
     e8e:	12 ed       	ldi	r17, 0xD2	; 210
     e90:	2f e2       	ldi	r18, 0x2F	; 47
     e92:	3e e3       	ldi	r19, 0x3E	; 62
     e94:	1d 96       	adiw	r26, 0x0d	; 13
     e96:	0d 93       	st	X+, r16
     e98:	1d 93       	st	X+, r17
     e9a:	2d 93       	st	X+, r18
     e9c:	3c 93       	st	X, r19
     e9e:	50 97       	sbiw	r26, 0x10	; 16

		if (dev->set_trigger) dev->set_trigger(0);
     ea0:	61 15       	cp	r22, r1
     ea2:	71 05       	cpc	r23, r1
     ea4:	19 f0       	breq	.+6      	; 0xeac <HCSR04_Init+0x4c>
     ea6:	fb 01       	movw	r30, r22
     ea8:	80 e0       	ldi	r24, 0x00	; 0
     eaa:	09 95       	icall
	}
     eac:	1f 91       	pop	r17
     eae:	0f 91       	pop	r16
     eb0:	08 95       	ret

00000eb2 <HCSR04_TuneParams>:

	void HCSR04_TuneParams(HCSR04_t *dev, uint16_t trig_pulse_us, float us_to_mm) {
     eb2:	cf 92       	push	r12
     eb4:	df 92       	push	r13
     eb6:	ef 92       	push	r14
     eb8:	ff 92       	push	r15
     eba:	cf 93       	push	r28
     ebc:	df 93       	push	r29
     ebe:	ec 01       	movw	r28, r24
     ec0:	69 01       	movw	r12, r18
     ec2:	7a 01       	movw	r14, r20
		if (trig_pulse_us > 0) dev->trig_pulse_us = trig_pulse_us;
     ec4:	61 15       	cp	r22, r1
     ec6:	71 05       	cpc	r23, r1
     ec8:	11 f0       	breq	.+4      	; 0xece <HCSR04_TuneParams+0x1c>
     eca:	7c 87       	std	Y+12, r23	; 0x0c
     ecc:	6b 87       	std	Y+11, r22	; 0x0b
		if (us_to_mm > 0.0f)   dev->us_to_mm = us_to_mm;
     ece:	20 e0       	ldi	r18, 0x00	; 0
     ed0:	30 e0       	ldi	r19, 0x00	; 0
     ed2:	a9 01       	movw	r20, r18
     ed4:	c7 01       	movw	r24, r14
     ed6:	b6 01       	movw	r22, r12
     ed8:	0e 94 ca 14 	call	0x2994	; 0x2994 <__gesf2>
     edc:	18 16       	cp	r1, r24
     ede:	24 f4       	brge	.+8      	; 0xee8 <HCSR04_TuneParams+0x36>
     ee0:	cd 86       	std	Y+13, r12	; 0x0d
     ee2:	de 86       	std	Y+14, r13	; 0x0e
     ee4:	ef 86       	std	Y+15, r14	; 0x0f
     ee6:	f8 8a       	std	Y+16, r15	; 0x10
	}
     ee8:	df 91       	pop	r29
     eea:	cf 91       	pop	r28
     eec:	ff 90       	pop	r15
     eee:	ef 90       	pop	r14
     ef0:	df 90       	pop	r13
     ef2:	cf 90       	pop	r12
     ef4:	08 95       	ret

00000ef6 <HCSR04_Trigger>:

	void HCSR04_Trigger(HCSR04_t *dev) {
     ef6:	fc 01       	movw	r30, r24
		// Si ya está midiendo o está en medio del pulso, ignoramos
		if (dev->esperando_eco || dev->captura_lista || dev->trig_generando) return;
     ef8:	81 85       	ldd	r24, Z+9	; 0x09
     efa:	81 11       	cpse	r24, r1
     efc:	0f c0       	rjmp	.+30     	; 0xf1c <HCSR04_Trigger+0x26>
     efe:	80 85       	ldd	r24, Z+8	; 0x08
     f00:	81 11       	cpse	r24, r1
     f02:	0c c0       	rjmp	.+24     	; 0xf1c <HCSR04_Trigger+0x26>
     f04:	82 85       	ldd	r24, Z+10	; 0x0a
     f06:	81 11       	cpse	r24, r1
     f08:	09 c0       	rjmp	.+18     	; 0xf1c <HCSR04_Trigger+0x26>

		// Le cargamos 2 ticks. Como tu ISR corre a 200 µs,
		// esto garantiza un pulso de entre 200 y 400 µs, sobradísimo para el sensor.
		dev->trig_generando = 2;
     f0a:	82 e0       	ldi	r24, 0x02	; 2
     f0c:	82 87       	std	Z+10, r24	; 0x0a

		if (dev->set_trigger) {
     f0e:	01 90       	ld	r0, Z+
     f10:	f0 81       	ld	r31, Z
     f12:	e0 2d       	mov	r30, r0
     f14:	30 97       	sbiw	r30, 0x00	; 0
     f16:	11 f0       	breq	.+4      	; 0xf1c <HCSR04_Trigger+0x26>
			dev->set_trigger(1); // Levantamos el pin y nos vamos inmediatamente
     f18:	81 e0       	ldi	r24, 0x01	; 1
     f1a:	09 95       	icall
     f1c:	08 95       	ret

00000f1e <HCSR04_TickISR>:
		}
	}

	// NUEVA FUNCIÓN: Se ejecuta asíncronamente en el Timer
	void HCSR04_TickISR(HCSR04_t *dev) {
     f1e:	cf 93       	push	r28
     f20:	df 93       	push	r29
     f22:	fc 01       	movw	r30, r24
		if (dev->trig_generando > 0) {
     f24:	82 85       	ldd	r24, Z+10	; 0x0a
     f26:	88 23       	and	r24, r24
     f28:	81 f0       	breq	.+32     	; 0xf4a <HCSR04_TickISR+0x2c>
			dev->trig_generando--;
     f2a:	82 85       	ldd	r24, Z+10	; 0x0a
     f2c:	81 50       	subi	r24, 0x01	; 1
     f2e:	82 87       	std	Z+10, r24	; 0x0a
		
			// Cuando el conteo llega a 0, bajamos el pin y habilitamos la espera del eco
			if (dev->trig_generando == 0) {
     f30:	82 85       	ldd	r24, Z+10	; 0x0a
     f32:	81 11       	cpse	r24, r1
     f34:	0a c0       	rjmp	.+20     	; 0xf4a <HCSR04_TickISR+0x2c>
     f36:	ef 01       	movw	r28, r30
				if (dev->set_trigger) {
     f38:	01 90       	ld	r0, Z+
     f3a:	f0 81       	ld	r31, Z
     f3c:	e0 2d       	mov	r30, r0
     f3e:	30 97       	sbiw	r30, 0x00	; 0
     f40:	09 f0       	breq	.+2      	; 0xf44 <HCSR04_TickISR+0x26>
					dev->set_trigger(0);
     f42:	09 95       	icall
				}
				dev->captura_lista = 0;
     f44:	18 86       	std	Y+8, r1	; 0x08
				dev->esperando_eco = 1;
     f46:	81 e0       	ldi	r24, 0x01	; 1
     f48:	89 87       	std	Y+9, r24	; 0x09
			}
		}
	}
     f4a:	df 91       	pop	r29
     f4c:	cf 91       	pop	r28
     f4e:	08 95       	ret

00000f50 <HCSR04_UpdateFromISR>:

	// El main.c invoca esto desde su interrupción de hardware
	void HCSR04_UpdateFromISR(HCSR04_t *dev, uint16_t current_ticks, uint8_t pin_state) {
		if (!dev->esperando_eco) return;
     f50:	fc 01       	movw	r30, r24
     f52:	21 85       	ldd	r18, Z+9	; 0x09
     f54:	22 23       	and	r18, r18
     f56:	51 f0       	breq	.+20     	; 0xf6c <HCSR04_UpdateFromISR+0x1c>

		if (pin_state) {
     f58:	44 23       	and	r20, r20
     f5a:	19 f0       	breq	.+6      	; 0xf62 <HCSR04_UpdateFromISR+0x12>
			// Pin en ALTO -> Flanco de subida
			dev->t_subida = current_ticks;
     f5c:	75 83       	std	Z+5, r23	; 0x05
     f5e:	64 83       	std	Z+4, r22	; 0x04
     f60:	08 95       	ret
			} else {
			// Pin en BAJO -> Flanco de bajada
			dev->t_bajada = current_ticks;
     f62:	fc 01       	movw	r30, r24
     f64:	77 83       	std	Z+7, r23	; 0x07
     f66:	66 83       	std	Z+6, r22	; 0x06
			dev->captura_lista = 1;
     f68:	21 e0       	ldi	r18, 0x01	; 1
     f6a:	20 87       	std	Z+8, r18	; 0x08
     f6c:	08 95       	ret

00000f6e <HCSR04_EventHandler>:
		}
	}

	void HCSR04_EventHandler(HCSR04_t *dev) {
     f6e:	cf 93       	push	r28
     f70:	df 93       	push	r29
		if (dev->captura_lista) {
     f72:	fc 01       	movw	r30, r24
     f74:	20 85       	ldd	r18, Z+8	; 0x08
     f76:	22 23       	and	r18, r18
     f78:	f1 f0       	breq	.+60     	; 0xfb6 <HCSR04_EventHandler+0x48>
     f7a:	ec 01       	movw	r28, r24
			uint16_t ticks = dev->t_bajada - dev->t_subida;
     f7c:	66 81       	ldd	r22, Z+6	; 0x06
     f7e:	77 81       	ldd	r23, Z+7	; 0x07
     f80:	84 81       	ldd	r24, Z+4	; 0x04
     f82:	95 81       	ldd	r25, Z+5	; 0x05
     f84:	68 1b       	sub	r22, r24
     f86:	79 0b       	sbc	r23, r25
		
			// Conversión de ticks a tiempo real.
			// Asumiendo que el hardware que llama corre con ticks de 0.5us (Prescaler 8 a 16MHz):
			float echo_us = (float)ticks * 0.5f;
     f88:	80 e0       	ldi	r24, 0x00	; 0
     f8a:	90 e0       	ldi	r25, 0x00	; 0
     f8c:	0e 94 18 14 	call	0x2830	; 0x2830 <__floatunsisf>
     f90:	20 e0       	ldi	r18, 0x00	; 0
     f92:	30 e0       	ldi	r19, 0x00	; 0
     f94:	40 e0       	ldi	r20, 0x00	; 0
     f96:	5f e3       	ldi	r21, 0x3F	; 63
     f98:	0e 94 cf 14 	call	0x299e	; 0x299e <__mulsf3>
			float dist_mm = echo_us * dev->us_to_mm;
     f9c:	2d 85       	ldd	r18, Y+13	; 0x0d
     f9e:	3e 85       	ldd	r19, Y+14	; 0x0e
     fa0:	4f 85       	ldd	r20, Y+15	; 0x0f
     fa2:	58 89       	ldd	r21, Y+16	; 0x10
     fa4:	0e 94 cf 14 	call	0x299e	; 0x299e <__mulsf3>

			dev->captura_lista = 0;
     fa8:	18 86       	std	Y+8, r1	; 0x08
			dev->esperando_eco = 0;
     faa:	19 86       	std	Y+9, r1	; 0x09

			if (dev->on_result) dev->on_result(dist_mm);
     fac:	ea 81       	ldd	r30, Y+2	; 0x02
     fae:	fb 81       	ldd	r31, Y+3	; 0x03
     fb0:	30 97       	sbiw	r30, 0x00	; 0
     fb2:	09 f0       	breq	.+2      	; 0xfb6 <HCSR04_EventHandler+0x48>
     fb4:	09 95       	icall
		}
     fb6:	df 91       	pop	r29
     fb8:	cf 91       	pop	r28
     fba:	08 95       	ret

00000fbc <Ciego_Init>:
#include "tracker.h"
#include <avr/io.h> 
// Vinculación con los servos globales del main
extern SG90_t servo1, servo2, servo3;

void Ciego_Init(ModoCiego_Ctrl_t *ctx) {
     fbc:	fc 01       	movw	r30, r24
	if (ctx == (void*)0) return;
     fbe:	00 97       	sbiw	r24, 0x00	; 0
     fc0:	09 f4       	brne	.+2      	; 0xfc4 <Ciego_Init+0x8>
     fc2:	40 c0       	rjmp	.+128    	; 0x1044 <Ciego_Init+0x88>
	
	ctx->activo = 0U;
     fc4:	10 82       	st	Z, r1
	ctx->caja_en_medicion = CAJA_NINGUNA;
     fc6:	dc 01       	movw	r26, r24
     fc8:	af 5e       	subi	r26, 0xEF	; 239
     fca:	be 4f       	sbci	r27, 0xFE	; 254
     fcc:	1c 92       	st	X, r1
	ctx->t_subida_ir0_us = 0UL;
     fce:	14 97       	sbiw	r26, 0x04	; 4
     fd0:	1d 92       	st	X+, r1
     fd2:	1d 92       	st	X+, r1
     fd4:	1d 92       	st	X+, r1
     fd6:	1c 92       	st	X, r1
     fd8:	13 97       	sbiw	r26, 0x03	; 3
	
	ctx->config.longitud_caja_default_mm = 80.0f;
     fda:	80 e0       	ldi	r24, 0x00	; 0
     fdc:	90 e0       	ldi	r25, 0x00	; 0
     fde:	a0 ea       	ldi	r26, 0xA0	; 160
     fe0:	b2 e4       	ldi	r27, 0x42	; 66
     fe2:	81 83       	std	Z+1, r24	; 0x01
     fe4:	92 83       	std	Z+2, r25	; 0x02
     fe6:	a3 83       	std	Z+3, r26	; 0x03
     fe8:	b4 83       	std	Z+4, r27	; 0x04
	ctx->config.distancia_servo_mm[0]    = 100.0f;
     fea:	80 e0       	ldi	r24, 0x00	; 0
     fec:	90 e0       	ldi	r25, 0x00	; 0
     fee:	a8 ec       	ldi	r26, 0xC8	; 200
     ff0:	b2 e4       	ldi	r27, 0x42	; 66
     ff2:	85 83       	std	Z+5, r24	; 0x05
     ff4:	96 83       	std	Z+6, r25	; 0x06
     ff6:	a7 83       	std	Z+7, r26	; 0x07
     ff8:	b0 87       	std	Z+8, r27	; 0x08
	ctx->config.distancia_servo_mm[1]    = 200.0f;
     ffa:	80 e0       	ldi	r24, 0x00	; 0
     ffc:	90 e0       	ldi	r25, 0x00	; 0
     ffe:	a8 e4       	ldi	r26, 0x48	; 72
    1000:	b3 e4       	ldi	r27, 0x43	; 67
    1002:	81 87       	std	Z+9, r24	; 0x09
    1004:	92 87       	std	Z+10, r25	; 0x0a
    1006:	a3 87       	std	Z+11, r26	; 0x0b
    1008:	b4 87       	std	Z+12, r27	; 0x0c
	ctx->config.distancia_servo_mm[2]    = 300.0f;
    100a:	80 e0       	ldi	r24, 0x00	; 0
    100c:	90 e0       	ldi	r25, 0x00	; 0
    100e:	a6 e9       	ldi	r26, 0x96	; 150
    1010:	b3 e4       	ldi	r27, 0x43	; 67
    1012:	85 87       	std	Z+13, r24	; 0x0d
    1014:	96 87       	std	Z+14, r25	; 0x0e
    1016:	a7 87       	std	Z+15, r26	; 0x0f
    1018:	b0 8b       	std	Z+16, r27	; 0x10
	ctx->config.offset_golpe_mm          = 20.0f;
    101a:	80 e0       	ldi	r24, 0x00	; 0
    101c:	90 e0       	ldi	r25, 0x00	; 0
    101e:	a0 ea       	ldi	r26, 0xA0	; 160
    1020:	b1 e4       	ldi	r27, 0x41	; 65
    1022:	81 8b       	std	Z+17, r24	; 0x11
    1024:	92 8b       	std	Z+18, r25	; 0x12
    1026:	a3 8b       	std	Z+19, r26	; 0x13
    1028:	b4 8b       	std	Z+20, r27	; 0x14
	
	for (uint8_t i = 0; i < CIEGO_MAX_CAJAS; i++) {
    102a:	90 e0       	ldi	r25, 0x00	; 0
    102c:	09 c0       	rjmp	.+18     	; 0x1040 <Ciego_Init+0x84>
		ctx->cajas_virtuales[i].activa = 0;
    102e:	df 01       	movw	r26, r30
    1030:	8f e1       	ldi	r24, 0x1F	; 31
    1032:	98 9f       	mul	r25, r24
    1034:	a0 0d       	add	r26, r0
    1036:	b1 1d       	adc	r27, r1
    1038:	11 24       	eor	r1, r1
    103a:	55 96       	adiw	r26, 0x15	; 21
    103c:	1c 92       	st	X, r1
	ctx->config.distancia_servo_mm[0]    = 100.0f;
	ctx->config.distancia_servo_mm[1]    = 200.0f;
	ctx->config.distancia_servo_mm[2]    = 300.0f;
	ctx->config.offset_golpe_mm          = 20.0f;
	
	for (uint8_t i = 0; i < CIEGO_MAX_CAJAS; i++) {
    103e:	9f 5f       	subi	r25, 0xFF	; 255
    1040:	98 30       	cpi	r25, 0x08	; 8
    1042:	a8 f3       	brcs	.-22     	; 0x102e <Ciego_Init+0x72>
    1044:	08 95       	ret

00001046 <Ciego_ConfigurarGeometria>:
		ctx->cajas_virtuales[i].activa = 0;
	}
}

void Ciego_ConfigurarGeometria(ModoCiego_Ctrl_t *ctx, float long_caja, float d0, float d1, float d2, float offset_golpe) {
    1046:	4f 92       	push	r4
    1048:	5f 92       	push	r5
    104a:	6f 92       	push	r6
    104c:	7f 92       	push	r7
    104e:	8f 92       	push	r8
    1050:	9f 92       	push	r9
    1052:	af 92       	push	r10
    1054:	bf 92       	push	r11
    1056:	cf 92       	push	r12
    1058:	df 92       	push	r13
    105a:	ef 92       	push	r14
    105c:	ff 92       	push	r15
    105e:	0f 93       	push	r16
    1060:	1f 93       	push	r17
    1062:	cf 93       	push	r28
    1064:	df 93       	push	r29
    1066:	cd b7       	in	r28, 0x3d	; 61
    1068:	de b7       	in	r29, 0x3e	; 62
    106a:	28 97       	sbiw	r28, 0x08	; 8
    106c:	0f b6       	in	r0, 0x3f	; 63
    106e:	f8 94       	cli
    1070:	de bf       	out	0x3e, r29	; 62
    1072:	0f be       	out	0x3f, r0	; 63
    1074:	cd bf       	out	0x3d, r28	; 61
	if (ctx == (void*)0) return;
    1076:	00 97       	sbiw	r24, 0x00	; 0
    1078:	09 f4       	brne	.+2      	; 0x107c <Ciego_ConfigurarGeometria+0x36>
    107a:	67 c0       	rjmp	.+206    	; 0x114a <Ciego_ConfigurarGeometria+0x104>
    107c:	8d 82       	std	Y+5, r8	; 0x05
    107e:	9e 82       	std	Y+6, r9	; 0x06
    1080:	af 82       	std	Y+7, r10	; 0x07
    1082:	b8 86       	std	Y+8, r11	; 0x08
    1084:	46 01       	movw	r8, r12
    1086:	57 01       	movw	r10, r14
    1088:	28 01       	movw	r4, r16
    108a:	39 01       	movw	r6, r18
    108c:	49 83       	std	Y+1, r20	; 0x01
    108e:	5a 83       	std	Y+2, r21	; 0x02
    1090:	6b 83       	std	Y+3, r22	; 0x03
    1092:	7c 83       	std	Y+4, r23	; 0x04
    1094:	7c 01       	movw	r14, r24
	if (long_caja > 0.0f) ctx->config.longitud_caja_default_mm = long_caja;
    1096:	20 e0       	ldi	r18, 0x00	; 0
    1098:	30 e0       	ldi	r19, 0x00	; 0
    109a:	a9 01       	movw	r20, r18
    109c:	69 81       	ldd	r22, Y+1	; 0x01
    109e:	7a 81       	ldd	r23, Y+2	; 0x02
    10a0:	8b 81       	ldd	r24, Y+3	; 0x03
    10a2:	9c 81       	ldd	r25, Y+4	; 0x04
    10a4:	0e 94 ca 14 	call	0x2994	; 0x2994 <__gesf2>
    10a8:	18 16       	cp	r1, r24
    10aa:	4c f4       	brge	.+18     	; 0x10be <Ciego_ConfigurarGeometria+0x78>
    10ac:	89 81       	ldd	r24, Y+1	; 0x01
    10ae:	9a 81       	ldd	r25, Y+2	; 0x02
    10b0:	ab 81       	ldd	r26, Y+3	; 0x03
    10b2:	bc 81       	ldd	r27, Y+4	; 0x04
    10b4:	f7 01       	movw	r30, r14
    10b6:	81 83       	std	Z+1, r24	; 0x01
    10b8:	92 83       	std	Z+2, r25	; 0x02
    10ba:	a3 83       	std	Z+3, r26	; 0x03
    10bc:	b4 83       	std	Z+4, r27	; 0x04
	if (d0 > 0.0f) ctx->config.distancia_servo_mm[0] = d0;
    10be:	20 e0       	ldi	r18, 0x00	; 0
    10c0:	30 e0       	ldi	r19, 0x00	; 0
    10c2:	a9 01       	movw	r20, r18
    10c4:	c3 01       	movw	r24, r6
    10c6:	b2 01       	movw	r22, r4
    10c8:	0e 94 ca 14 	call	0x2994	; 0x2994 <__gesf2>
    10cc:	18 16       	cp	r1, r24
    10ce:	3c f4       	brge	.+14     	; 0x10de <Ciego_ConfigurarGeometria+0x98>
    10d0:	d7 01       	movw	r26, r14
    10d2:	15 96       	adiw	r26, 0x05	; 5
    10d4:	4d 92       	st	X+, r4
    10d6:	5d 92       	st	X+, r5
    10d8:	6d 92       	st	X+, r6
    10da:	7c 92       	st	X, r7
    10dc:	18 97       	sbiw	r26, 0x08	; 8
	if (d1 > 0.0f) ctx->config.distancia_servo_mm[1] = d1;
    10de:	20 e0       	ldi	r18, 0x00	; 0
    10e0:	30 e0       	ldi	r19, 0x00	; 0
    10e2:	a9 01       	movw	r20, r18
    10e4:	c5 01       	movw	r24, r10
    10e6:	b4 01       	movw	r22, r8
    10e8:	0e 94 ca 14 	call	0x2994	; 0x2994 <__gesf2>
    10ec:	18 16       	cp	r1, r24
    10ee:	2c f4       	brge	.+10     	; 0x10fa <Ciego_ConfigurarGeometria+0xb4>
    10f0:	f7 01       	movw	r30, r14
    10f2:	81 86       	std	Z+9, r8	; 0x09
    10f4:	92 86       	std	Z+10, r9	; 0x0a
    10f6:	a3 86       	std	Z+11, r10	; 0x0b
    10f8:	b4 86       	std	Z+12, r11	; 0x0c
	if (d2 > 0.0f) ctx->config.distancia_servo_mm[2] = d2;
    10fa:	20 e0       	ldi	r18, 0x00	; 0
    10fc:	30 e0       	ldi	r19, 0x00	; 0
    10fe:	a9 01       	movw	r20, r18
    1100:	6d 81       	ldd	r22, Y+5	; 0x05
    1102:	7e 81       	ldd	r23, Y+6	; 0x06
    1104:	8f 81       	ldd	r24, Y+7	; 0x07
    1106:	98 85       	ldd	r25, Y+8	; 0x08
    1108:	0e 94 ca 14 	call	0x2994	; 0x2994 <__gesf2>
    110c:	18 16       	cp	r1, r24
    110e:	4c f4       	brge	.+18     	; 0x1122 <Ciego_ConfigurarGeometria+0xdc>
    1110:	8d 81       	ldd	r24, Y+5	; 0x05
    1112:	9e 81       	ldd	r25, Y+6	; 0x06
    1114:	af 81       	ldd	r26, Y+7	; 0x07
    1116:	b8 85       	ldd	r27, Y+8	; 0x08
    1118:	f7 01       	movw	r30, r14
    111a:	85 87       	std	Z+13, r24	; 0x0d
    111c:	96 87       	std	Z+14, r25	; 0x0e
    111e:	a7 87       	std	Z+15, r26	; 0x0f
    1120:	b0 8b       	std	Z+16, r27	; 0x10
	if (offset_golpe > 0.0f) ctx->config.offset_golpe_mm = offset_golpe;
    1122:	20 e0       	ldi	r18, 0x00	; 0
    1124:	30 e0       	ldi	r19, 0x00	; 0
    1126:	a9 01       	movw	r20, r18
    1128:	6b 8d       	ldd	r22, Y+27	; 0x1b
    112a:	7c 8d       	ldd	r23, Y+28	; 0x1c
    112c:	8d 8d       	ldd	r24, Y+29	; 0x1d
    112e:	9e 8d       	ldd	r25, Y+30	; 0x1e
    1130:	0e 94 ca 14 	call	0x2994	; 0x2994 <__gesf2>
    1134:	18 16       	cp	r1, r24
    1136:	4c f4       	brge	.+18     	; 0x114a <Ciego_ConfigurarGeometria+0x104>
    1138:	8b 8d       	ldd	r24, Y+27	; 0x1b
    113a:	9c 8d       	ldd	r25, Y+28	; 0x1c
    113c:	ad 8d       	ldd	r26, Y+29	; 0x1d
    113e:	be 8d       	ldd	r27, Y+30	; 0x1e
    1140:	f7 01       	movw	r30, r14
    1142:	81 8b       	std	Z+17, r24	; 0x11
    1144:	92 8b       	std	Z+18, r25	; 0x12
    1146:	a3 8b       	std	Z+19, r26	; 0x13
    1148:	b4 8b       	std	Z+20, r27	; 0x14
}
    114a:	28 96       	adiw	r28, 0x08	; 8
    114c:	0f b6       	in	r0, 0x3f	; 63
    114e:	f8 94       	cli
    1150:	de bf       	out	0x3e, r29	; 62
    1152:	0f be       	out	0x3f, r0	; 63
    1154:	cd bf       	out	0x3d, r28	; 61
    1156:	df 91       	pop	r29
    1158:	cf 91       	pop	r28
    115a:	1f 91       	pop	r17
    115c:	0f 91       	pop	r16
    115e:	ff 90       	pop	r15
    1160:	ef 90       	pop	r14
    1162:	df 90       	pop	r13
    1164:	cf 90       	pop	r12
    1166:	bf 90       	pop	r11
    1168:	af 90       	pop	r10
    116a:	9f 90       	pop	r9
    116c:	8f 90       	pop	r8
    116e:	7f 90       	pop	r7
    1170:	6f 90       	pop	r6
    1172:	5f 90       	pop	r5
    1174:	4f 90       	pop	r4
    1176:	08 95       	ret

00001178 <Ciego_ComandoActivar>:

void Ciego_ComandoActivar(ModoCiego_Ctrl_t *ctx, uint8_t activar) {
    1178:	dc 01       	movw	r26, r24
		if (ctx == (void*)0) return;
    117a:	89 2b       	or	r24, r25
    117c:	d1 f0       	breq	.+52     	; 0x11b2 <Ciego_ComandoActivar+0x3a>
		ctx->activo = activar;
    117e:	6c 93       	st	X, r22

		if (activar) {
    1180:	66 23       	and	r22, r22
    1182:	69 f0       	breq	.+26     	; 0x119e <Ciego_ComandoActivar+0x26>
			// NUEVO: Arrancó el modo ciego, clavamos A0 en BAJO
			PORTC &= ~(1 << PC0);
    1184:	88 b1       	in	r24, 0x08	; 8
    1186:	8e 7f       	andi	r24, 0xFE	; 254
    1188:	88 b9       	out	0x08, r24	; 8
    118a:	08 95       	ret
			} else {
			// Limpieza de seguridad
			for (uint8_t i = 0; i < CIEGO_MAX_CAJAS; i++) {
				ctx->cajas_virtuales[i].activa = 0;
    118c:	fd 01       	movw	r30, r26
    118e:	8f e1       	ldi	r24, 0x1F	; 31
    1190:	98 9f       	mul	r25, r24
    1192:	e0 0d       	add	r30, r0
    1194:	f1 1d       	adc	r31, r1
    1196:	11 24       	eor	r1, r1
    1198:	15 8a       	std	Z+21, r1	; 0x15
		if (activar) {
			// NUEVO: Arrancó el modo ciego, clavamos A0 en BAJO
			PORTC &= ~(1 << PC0);
			} else {
			// Limpieza de seguridad
			for (uint8_t i = 0; i < CIEGO_MAX_CAJAS; i++) {
    119a:	9f 5f       	subi	r25, 0xFF	; 255
    119c:	01 c0       	rjmp	.+2      	; 0x11a0 <Ciego_ComandoActivar+0x28>
    119e:	90 e0       	ldi	r25, 0x00	; 0
    11a0:	98 30       	cpi	r25, 0x08	; 8
    11a2:	a0 f3       	brcs	.-24     	; 0x118c <Ciego_ComandoActivar+0x14>
				ctx->cajas_virtuales[i].activa = 0;
			}

			// NUEVO: Verificamos si el modo normal también está apagado
			extern Clasificador_Ctrl_t mi_clasificador;
			if (mi_clasificador.estado_master == ESTADO_APAGADO) {
    11a4:	80 91 f0 02 	lds	r24, 0x02F0	; 0x8002f0 <mi_clasificador>
    11a8:	81 11       	cpse	r24, r1
    11aa:	03 c0       	rjmp	.+6      	; 0x11b2 <Ciego_ComandoActivar+0x3a>
				PORTC |= (1 << PC0); // Ambos apagados, A0 vuelve a ALTO
    11ac:	88 b1       	in	r24, 0x08	; 8
    11ae:	81 60       	ori	r24, 0x01	; 1
    11b0:	88 b9       	out	0x08, r24	; 8
    11b2:	08 95       	ret

000011b4 <Ciego_AsignarTipoCajaActual>:
			}
		}
}

void Ciego_AsignarTipoCajaActual(ModoCiego_Ctrl_t *ctx, Clasificador_TipoCaja_t tipo) {
	if (ctx == (void*)0) return;
    11b4:	00 97       	sbiw	r24, 0x00	; 0
    11b6:	21 f0       	breq	.+8      	; 0x11c0 <Ciego_AsignarTipoCajaActual+0xc>
	ctx->caja_en_medicion = tipo;
    11b8:	fc 01       	movw	r30, r24
    11ba:	ef 5e       	subi	r30, 0xEF	; 239
    11bc:	fe 4f       	sbci	r31, 0xFE	; 254
    11be:	60 83       	st	Z, r22
    11c0:	08 95       	ret

000011c2 <Ciego_InfrarrojoEntrada_Callback>:
}

void Ciego_InfrarrojoEntrada_Callback(ModoCiego_Ctrl_t *ctx, uint8_t objeto_detectado, uint32_t ahora_us) {
    11c2:	3f 92       	push	r3
    11c4:	4f 92       	push	r4
    11c6:	5f 92       	push	r5
    11c8:	6f 92       	push	r6
    11ca:	7f 92       	push	r7
    11cc:	8f 92       	push	r8
    11ce:	9f 92       	push	r9
    11d0:	af 92       	push	r10
    11d2:	bf 92       	push	r11
    11d4:	cf 92       	push	r12
    11d6:	df 92       	push	r13
    11d8:	ef 92       	push	r14
    11da:	ff 92       	push	r15
    11dc:	0f 93       	push	r16
    11de:	1f 93       	push	r17
    11e0:	cf 93       	push	r28
    11e2:	df 93       	push	r29
	if (ctx == (void*)0 || !ctx->activo) return;
    11e4:	00 97       	sbiw	r24, 0x00	; 0
    11e6:	09 f4       	brne	.+2      	; 0x11ea <Ciego_InfrarrojoEntrada_Callback+0x28>
    11e8:	39 c1       	rjmp	.+626    	; 0x145c <Ciego_InfrarrojoEntrada_Callback+0x29a>
    11ea:	fc 01       	movw	r30, r24
    11ec:	70 81       	ld	r23, Z
    11ee:	77 23       	and	r23, r23
    11f0:	09 f4       	brne	.+2      	; 0x11f4 <Ciego_InfrarrojoEntrada_Callback+0x32>
    11f2:	34 c1       	rjmp	.+616    	; 0x145c <Ciego_InfrarrojoEntrada_Callback+0x29a>

	if (objeto_detectado) {
    11f4:	66 23       	and	r22, r22
    11f6:	41 f0       	breq	.+16     	; 0x1208 <Ciego_InfrarrojoEntrada_Callback+0x46>
		ctx->t_subida_ir0_us = ahora_us;
    11f8:	ec 01       	movw	r28, r24
    11fa:	c3 5f       	subi	r28, 0xF3	; 243
    11fc:	de 4f       	sbci	r29, 0xFE	; 254
    11fe:	28 83       	st	Y, r18
    1200:	39 83       	std	Y+1, r19	; 0x01
    1202:	4a 83       	std	Y+2, r20	; 0x02
    1204:	5b 83       	std	Y+3, r21	; 0x03
    1206:	2a c1       	rjmp	.+596    	; 0x145c <Ciego_InfrarrojoEntrada_Callback+0x29a>
	}
	else {
		if (ctx->t_subida_ir0_us == 0UL || ctx->caja_en_medicion == CAJA_NINGUNA) return;
    1208:	fc 01       	movw	r30, r24
    120a:	e3 5f       	subi	r30, 0xF3	; 243
    120c:	fe 4f       	sbci	r31, 0xFE	; 254
    120e:	c0 80       	ld	r12, Z
    1210:	d1 80       	ldd	r13, Z+1	; 0x01
    1212:	e2 80       	ldd	r14, Z+2	; 0x02
    1214:	f3 80       	ldd	r15, Z+3	; 0x03
    1216:	c1 14       	cp	r12, r1
    1218:	d1 04       	cpc	r13, r1
    121a:	e1 04       	cpc	r14, r1
    121c:	f1 04       	cpc	r15, r1
    121e:	09 f4       	brne	.+2      	; 0x1222 <Ciego_InfrarrojoEntrada_Callback+0x60>
    1220:	1d c1       	rjmp	.+570    	; 0x145c <Ciego_InfrarrojoEntrada_Callback+0x29a>
    1222:	34 96       	adiw	r30, 0x04	; 4
    1224:	50 80       	ld	r5, Z
    1226:	55 20       	and	r5, r5
    1228:	09 f4       	brne	.+2      	; 0x122c <Ciego_InfrarrojoEntrada_Callback+0x6a>
    122a:	18 c1       	rjmp	.+560    	; 0x145c <Ciego_InfrarrojoEntrada_Callback+0x29a>

		uint32_t delta_t_us = ahora_us - ctx->t_subida_ir0_us;
    122c:	ba 01       	movw	r22, r20
    122e:	a9 01       	movw	r20, r18
    1230:	4c 19       	sub	r20, r12
    1232:	5d 09       	sbc	r21, r13
    1234:	6e 09       	sbc	r22, r14
    1236:	7f 09       	sbc	r23, r15
		if (delta_t_us == 0) return;
    1238:	09 f4       	brne	.+2      	; 0x123c <Ciego_InfrarrojoEntrada_Callback+0x7a>
    123a:	10 c1       	rjmp	.+544    	; 0x145c <Ciego_InfrarrojoEntrada_Callback+0x29a>
    123c:	ec 01       	movw	r28, r24
		float tiempo_transito_seg = (float)delta_t_us / 1000000.0f;
    123e:	cb 01       	movw	r24, r22
    1240:	ba 01       	movw	r22, r20
    1242:	0e 94 18 14 	call	0x2830	; 0x2830 <__floatunsisf>
    1246:	20 e0       	ldi	r18, 0x00	; 0
    1248:	34 e2       	ldi	r19, 0x24	; 36
    124a:	44 e7       	ldi	r20, 0x74	; 116
    124c:	59 e4       	ldi	r21, 0x49	; 73
    124e:	0e 94 70 13 	call	0x26e0	; 0x26e0 <__divsf3>
    1252:	4b 01       	movw	r8, r22
    1254:	5c 01       	movw	r10, r24
		float vel_mms = ctx->config.longitud_caja_default_mm / tiempo_transito_seg;
    1256:	69 81       	ldd	r22, Y+1	; 0x01
    1258:	7a 81       	ldd	r23, Y+2	; 0x02
    125a:	8b 81       	ldd	r24, Y+3	; 0x03
    125c:	9c 81       	ldd	r25, Y+4	; 0x04
    125e:	a5 01       	movw	r20, r10
    1260:	94 01       	movw	r18, r8
    1262:	0e 94 70 13 	call	0x26e0	; 0x26e0 <__divsf3>
    1266:	6b 01       	movw	r12, r22
    1268:	7c 01       	movw	r14, r24
		float t_transcurrido_ms = tiempo_transito_seg * 1000.0f;
    126a:	20 e0       	ldi	r18, 0x00	; 0
    126c:	30 e0       	ldi	r19, 0x00	; 0
    126e:	4a e7       	ldi	r20, 0x7A	; 122
    1270:	54 e4       	ldi	r21, 0x44	; 68
    1272:	c5 01       	movw	r24, r10
    1274:	b4 01       	movw	r22, r8
    1276:	0e 94 cf 14 	call	0x299e	; 0x299e <__mulsf3>
    127a:	4b 01       	movw	r8, r22
    127c:	5c 01       	movw	r10, r24

		// Buscar asignación
		uint8_t idx_brazo = 255U;
		extern Clasificador_Ctrl_t mi_clasificador;
		if (ctx->caja_en_medicion != CAJA_DESCONOCIDA) {
    127e:	f4 e0       	ldi	r31, 0x04	; 4
    1280:	5f 12       	cpse	r5, r31
    1282:	0e c0       	rjmp	.+28     	; 0x12a0 <Ciego_InfrarrojoEntrada_Callback+0xde>
		float tiempo_transito_seg = (float)delta_t_us / 1000000.0f;
		float vel_mms = ctx->config.longitud_caja_default_mm / tiempo_transito_seg;
		float t_transcurrido_ms = tiempo_transito_seg * 1000.0f;

		// Buscar asignación
		uint8_t idx_brazo = 255U;
    1284:	33 24       	eor	r3, r3
    1286:	3a 94       	dec	r3
    1288:	11 c0       	rjmp	.+34     	; 0x12ac <Ciego_InfrarrojoEntrada_Callback+0xea>
		extern Clasificador_Ctrl_t mi_clasificador;
		if (ctx->caja_en_medicion != CAJA_DESCONOCIDA) {
			for (uint8_t i = 0; i < 3; i++) {
				if (mi_clasificador.eyectores[i].caja_asignada == ctx->caja_en_medicion) {
    128a:	8d e1       	ldi	r24, 0x1D	; 29
    128c:	38 9e       	mul	r3, r24
    128e:	f0 01       	movw	r30, r0
    1290:	11 24       	eor	r1, r1
    1292:	e0 51       	subi	r30, 0x10	; 16
    1294:	fd 4f       	sbci	r31, 0xFD	; 253
    1296:	85 89       	ldd	r24, Z+21	; 0x15
    1298:	58 16       	cp	r5, r24
    129a:	41 f0       	breq	.+16     	; 0x12ac <Ciego_InfrarrojoEntrada_Callback+0xea>

		// Buscar asignación
		uint8_t idx_brazo = 255U;
		extern Clasificador_Ctrl_t mi_clasificador;
		if (ctx->caja_en_medicion != CAJA_DESCONOCIDA) {
			for (uint8_t i = 0; i < 3; i++) {
    129c:	33 94       	inc	r3
    129e:	01 c0       	rjmp	.+2      	; 0x12a2 <Ciego_InfrarrojoEntrada_Callback+0xe0>
    12a0:	31 2c       	mov	r3, r1
    12a2:	e2 e0       	ldi	r30, 0x02	; 2
    12a4:	e3 15       	cp	r30, r3
    12a6:	88 f7       	brcc	.-30     	; 0x128a <Ciego_InfrarrojoEntrada_Callback+0xc8>
		float tiempo_transito_seg = (float)delta_t_us / 1000000.0f;
		float vel_mms = ctx->config.longitud_caja_default_mm / tiempo_transito_seg;
		float t_transcurrido_ms = tiempo_transito_seg * 1000.0f;

		// Buscar asignación
		uint8_t idx_brazo = 255U;
    12a8:	33 24       	eor	r3, r3
    12aa:	3a 94       	dec	r3
				}
			}
		}

		// Crear la Caja Virtual en el primer slot libre
		for (uint8_t i = 0; i < CIEGO_MAX_CAJAS; i++) {
    12ac:	80 e0       	ldi	r24, 0x00	; 0
    12ae:	d0 c0       	rjmp	.+416    	; 0x1450 <Ciego_InfrarrojoEntrada_Callback+0x28e>
			Ciego_CajaVirtual_t *c = &ctx->cajas_virtuales[i];
    12b0:	08 2f       	mov	r16, r24
    12b2:	10 e0       	ldi	r17, 0x00	; 0
			if (!c->activa) {
    12b4:	9f e1       	ldi	r25, 0x1F	; 31
    12b6:	90 9f       	mul	r25, r16
    12b8:	f0 01       	movw	r30, r0
    12ba:	91 9f       	mul	r25, r17
    12bc:	f0 0d       	add	r31, r0
    12be:	11 24       	eor	r1, r1
    12c0:	ec 0f       	add	r30, r28
    12c2:	fd 1f       	adc	r31, r29
    12c4:	95 89       	ldd	r25, Z+21	; 0x15
    12c6:	91 11       	cpse	r25, r1
    12c8:	c2 c0       	rjmp	.+388    	; 0x144e <Ciego_InfrarrojoEntrada_Callback+0x28c>
				c->activa = 1;
    12ca:	3f 01       	movw	r6, r30
    12cc:	81 e0       	ldi	r24, 0x01	; 1
    12ce:	85 8b       	std	Z+21, r24	; 0x15
				c->tipo = ctx->caja_en_medicion;
    12d0:	56 8a       	std	Z+22, r5	; 0x16
				c->brazo_asignado = idx_brazo;
    12d2:	37 8a       	std	Z+23, r3	; 0x17
				
				// Cálculos cinemáticos de transición de zonas
				c->t_s1_ms = (int32_t)(((ctx->config.distancia_servo_mm[0] / vel_mms) * 1000.0f) - t_transcurrido_ms);
    12d4:	6d 81       	ldd	r22, Y+5	; 0x05
    12d6:	7e 81       	ldd	r23, Y+6	; 0x06
    12d8:	8f 81       	ldd	r24, Y+7	; 0x07
    12da:	98 85       	ldd	r25, Y+8	; 0x08
    12dc:	a7 01       	movw	r20, r14
    12de:	96 01       	movw	r18, r12
    12e0:	0e 94 70 13 	call	0x26e0	; 0x26e0 <__divsf3>
    12e4:	20 e0       	ldi	r18, 0x00	; 0
    12e6:	30 e0       	ldi	r19, 0x00	; 0
    12e8:	4a e7       	ldi	r20, 0x7A	; 122
    12ea:	54 e4       	ldi	r21, 0x44	; 68
    12ec:	0e 94 cf 14 	call	0x299e	; 0x299e <__mulsf3>
    12f0:	a5 01       	movw	r20, r10
    12f2:	94 01       	movw	r18, r8
    12f4:	0e 94 fe 12 	call	0x25fc	; 0x25fc <__subsf3>
    12f8:	0e 94 e2 13 	call	0x27c4	; 0x27c4 <__fixsfsi>
    12fc:	f3 01       	movw	r30, r6
    12fe:	60 8f       	std	Z+24, r22	; 0x18
    1300:	71 8f       	std	Z+25, r23	; 0x19
    1302:	82 8f       	std	Z+26, r24	; 0x1a
    1304:	93 8f       	std	Z+27, r25	; 0x1b
				c->t_s2_ms = (int32_t)(((ctx->config.distancia_servo_mm[1] / vel_mms) * 1000.0f) - t_transcurrido_ms);
    1306:	69 85       	ldd	r22, Y+9	; 0x09
    1308:	7a 85       	ldd	r23, Y+10	; 0x0a
    130a:	8b 85       	ldd	r24, Y+11	; 0x0b
    130c:	9c 85       	ldd	r25, Y+12	; 0x0c
    130e:	a7 01       	movw	r20, r14
    1310:	96 01       	movw	r18, r12
    1312:	0e 94 70 13 	call	0x26e0	; 0x26e0 <__divsf3>
    1316:	20 e0       	ldi	r18, 0x00	; 0
    1318:	30 e0       	ldi	r19, 0x00	; 0
    131a:	4a e7       	ldi	r20, 0x7A	; 122
    131c:	54 e4       	ldi	r21, 0x44	; 68
    131e:	0e 94 cf 14 	call	0x299e	; 0x299e <__mulsf3>
    1322:	a5 01       	movw	r20, r10
    1324:	94 01       	movw	r18, r8
    1326:	0e 94 fe 12 	call	0x25fc	; 0x25fc <__subsf3>
    132a:	0e 94 e2 13 	call	0x27c4	; 0x27c4 <__fixsfsi>
    132e:	f3 01       	movw	r30, r6
    1330:	64 8f       	std	Z+28, r22	; 0x1c
    1332:	75 8f       	std	Z+29, r23	; 0x1d
    1334:	86 8f       	std	Z+30, r24	; 0x1e
    1336:	97 8f       	std	Z+31, r25	; 0x1f
				c->t_s3_ms = (int32_t)(((ctx->config.distancia_servo_mm[2] / vel_mms) * 1000.0f) - t_transcurrido_ms);
    1338:	6d 85       	ldd	r22, Y+13	; 0x0d
    133a:	7e 85       	ldd	r23, Y+14	; 0x0e
    133c:	8f 85       	ldd	r24, Y+15	; 0x0f
    133e:	98 89       	ldd	r25, Y+16	; 0x10
    1340:	a7 01       	movw	r20, r14
    1342:	96 01       	movw	r18, r12
    1344:	0e 94 70 13 	call	0x26e0	; 0x26e0 <__divsf3>
    1348:	20 e0       	ldi	r18, 0x00	; 0
    134a:	30 e0       	ldi	r19, 0x00	; 0
    134c:	4a e7       	ldi	r20, 0x7A	; 122
    134e:	54 e4       	ldi	r21, 0x44	; 68
    1350:	0e 94 cf 14 	call	0x299e	; 0x299e <__mulsf3>
    1354:	a5 01       	movw	r20, r10
    1356:	94 01       	movw	r18, r8
    1358:	0e 94 fe 12 	call	0x25fc	; 0x25fc <__subsf3>
    135c:	0e 94 e2 13 	call	0x27c4	; 0x27c4 <__fixsfsi>
    1360:	f3 01       	movw	r30, r6
    1362:	60 a3       	std	Z+32, r22	; 0x20
    1364:	71 a3       	std	Z+33, r23	; 0x21
    1366:	82 a3       	std	Z+34, r24	; 0x22
    1368:	93 a3       	std	Z+35, r25	; 0x23
				c->t_fin_ms = c->t_s3_ms + 1000; // Cae al descarte 1 segundo después de S3
    136a:	dc 01       	movw	r26, r24
    136c:	cb 01       	movw	r24, r22
    136e:	88 51       	subi	r24, 0x18	; 24
    1370:	9c 4f       	sbci	r25, 0xFC	; 252
    1372:	af 4f       	sbci	r26, 0xFF	; 255
    1374:	bf 4f       	sbci	r27, 0xFF	; 255
    1376:	80 a7       	std	Z+40, r24	; 0x28
    1378:	91 a7       	std	Z+41, r25	; 0x29
    137a:	a2 a7       	std	Z+42, r26	; 0x2a
    137c:	b3 a7       	std	Z+43, r27	; 0x2b

				// Cálculo del golpe si tiene brazo asignado
				if (idx_brazo < 3U) {
    137e:	f2 e0       	ldi	r31, 0x02	; 2
    1380:	f3 15       	cp	r31, r3
    1382:	08 f4       	brcc	.+2      	; 0x1386 <Ciego_InfrarrojoEntrada_Callback+0x1c4>
    1384:	40 c0       	rjmp	.+128    	; 0x1406 <Ciego_InfrarrojoEntrada_Callback+0x244>
					float t_offset_ms = (ctx->config.offset_golpe_mm / vel_mms) * 1000.0f;
    1386:	69 89       	ldd	r22, Y+17	; 0x11
    1388:	7a 89       	ldd	r23, Y+18	; 0x12
    138a:	8b 89       	ldd	r24, Y+19	; 0x13
    138c:	9c 89       	ldd	r25, Y+20	; 0x14
    138e:	a7 01       	movw	r20, r14
    1390:	96 01       	movw	r18, r12
    1392:	0e 94 70 13 	call	0x26e0	; 0x26e0 <__divsf3>
    1396:	20 e0       	ldi	r18, 0x00	; 0
    1398:	30 e0       	ldi	r19, 0x00	; 0
    139a:	4a e7       	ldi	r20, 0x7A	; 122
    139c:	54 e4       	ldi	r21, 0x44	; 68
    139e:	0e 94 cf 14 	call	0x299e	; 0x299e <__mulsf3>
    13a2:	2b 01       	movw	r4, r22
    13a4:	3c 01       	movw	r6, r24
					c->t_impacto_ms = (int32_t)(((ctx->config.distancia_servo_mm[idx_brazo] / vel_mms) * 1000.0f) - t_transcurrido_ms + t_offset_ms);
    13a6:	e3 2d       	mov	r30, r3
    13a8:	f0 e0       	ldi	r31, 0x00	; 0
    13aa:	31 96       	adiw	r30, 0x01	; 1
    13ac:	ee 0f       	add	r30, r30
    13ae:	ff 1f       	adc	r31, r31
    13b0:	ee 0f       	add	r30, r30
    13b2:	ff 1f       	adc	r31, r31
    13b4:	ec 0f       	add	r30, r28
    13b6:	fd 1f       	adc	r31, r29
    13b8:	61 81       	ldd	r22, Z+1	; 0x01
    13ba:	72 81       	ldd	r23, Z+2	; 0x02
    13bc:	83 81       	ldd	r24, Z+3	; 0x03
    13be:	94 81       	ldd	r25, Z+4	; 0x04
    13c0:	a7 01       	movw	r20, r14
    13c2:	96 01       	movw	r18, r12
    13c4:	0e 94 70 13 	call	0x26e0	; 0x26e0 <__divsf3>
    13c8:	20 e0       	ldi	r18, 0x00	; 0
    13ca:	30 e0       	ldi	r19, 0x00	; 0
    13cc:	4a e7       	ldi	r20, 0x7A	; 122
    13ce:	54 e4       	ldi	r21, 0x44	; 68
    13d0:	0e 94 cf 14 	call	0x299e	; 0x299e <__mulsf3>
    13d4:	a5 01       	movw	r20, r10
    13d6:	94 01       	movw	r18, r8
    13d8:	0e 94 fe 12 	call	0x25fc	; 0x25fc <__subsf3>
    13dc:	9b 01       	movw	r18, r22
    13de:	ac 01       	movw	r20, r24
    13e0:	c3 01       	movw	r24, r6
    13e2:	b2 01       	movw	r22, r4
    13e4:	0e 94 ff 12 	call	0x25fe	; 0x25fe <__addsf3>
    13e8:	0e 94 e2 13 	call	0x27c4	; 0x27c4 <__fixsfsi>
    13ec:	2f e1       	ldi	r18, 0x1F	; 31
    13ee:	20 9f       	mul	r18, r16
    13f0:	f0 01       	movw	r30, r0
    13f2:	21 9f       	mul	r18, r17
    13f4:	f0 0d       	add	r31, r0
    13f6:	11 24       	eor	r1, r1
    13f8:	ec 0f       	add	r30, r28
    13fa:	fd 1f       	adc	r31, r29
    13fc:	64 a3       	std	Z+36, r22	; 0x24
    13fe:	75 a3       	std	Z+37, r23	; 0x25
    1400:	86 a3       	std	Z+38, r24	; 0x26
    1402:	97 a3       	std	Z+39, r25	; 0x27
    1404:	10 c0       	rjmp	.+32     	; 0x1426 <Ciego_InfrarrojoEntrada_Callback+0x264>
					} else {
					c->t_impacto_ms = 9999999; // Nunca impacta
    1406:	8f e1       	ldi	r24, 0x1F	; 31
    1408:	80 9f       	mul	r24, r16
    140a:	f0 01       	movw	r30, r0
    140c:	81 9f       	mul	r24, r17
    140e:	f0 0d       	add	r31, r0
    1410:	11 24       	eor	r1, r1
    1412:	ec 0f       	add	r30, r28
    1414:	fd 1f       	adc	r31, r29
    1416:	8f e7       	ldi	r24, 0x7F	; 127
    1418:	96 e9       	ldi	r25, 0x96	; 150
    141a:	a8 e9       	ldi	r26, 0x98	; 152
    141c:	b0 e0       	ldi	r27, 0x00	; 0
    141e:	84 a3       	std	Z+36, r24	; 0x24
    1420:	95 a3       	std	Z+37, r25	; 0x25
    1422:	a6 a3       	std	Z+38, r26	; 0x26
    1424:	b7 a3       	std	Z+39, r27	; 0x27
				}

				c->paso_s1 = 0; c->paso_s2 = 0; c->paso_s3 = 0;
    1426:	8f e1       	ldi	r24, 0x1F	; 31
    1428:	80 9f       	mul	r24, r16
    142a:	f0 01       	movw	r30, r0
    142c:	81 9f       	mul	r24, r17
    142e:	f0 0d       	add	r31, r0
    1430:	11 24       	eor	r1, r1
    1432:	ec 0f       	add	r30, r28
    1434:	fd 1f       	adc	r31, r29
    1436:	14 a6       	std	Z+44, r1	; 0x2c
    1438:	15 a6       	std	Z+45, r1	; 0x2d
    143a:	16 a6       	std	Z+46, r1	; 0x2e
				c->estado_servo = CIEGO_ESTADO_VIAJANDO;
    143c:	17 a6       	std	Z+47, r1	; 0x2f
				c->cronometro_servo_ms = 0;
    143e:	10 aa       	std	Z+48, r1	; 0x30
    1440:	11 aa       	std	Z+49, r1	; 0x31
    1442:	12 aa       	std	Z+50, r1	; 0x32
    1444:	13 aa       	std	Z+51, r1	; 0x33

				// ˇAvisamos a la HMI que la caja entró al sistema físico!
				Tracker_NuevaCaja(c->tipo);
    1446:	86 89       	ldd	r24, Z+22	; 0x16
    1448:	0e 94 e1 11 	call	0x23c2	; 0x23c2 <Tracker_NuevaCaja>
				break;
    144c:	04 c0       	rjmp	.+8      	; 0x1456 <Ciego_InfrarrojoEntrada_Callback+0x294>
				}
			}
		}

		// Crear la Caja Virtual en el primer slot libre
		for (uint8_t i = 0; i < CIEGO_MAX_CAJAS; i++) {
    144e:	8f 5f       	subi	r24, 0xFF	; 255
    1450:	88 30       	cpi	r24, 0x08	; 8
    1452:	08 f4       	brcc	.+2      	; 0x1456 <Ciego_InfrarrojoEntrada_Callback+0x294>
    1454:	2d cf       	rjmp	.-422    	; 0x12b0 <Ciego_InfrarrojoEntrada_Callback+0xee>
				// ˇAvisamos a la HMI que la caja entró al sistema físico!
				Tracker_NuevaCaja(c->tipo);
				break;
			}
		}
		ctx->caja_en_medicion = CAJA_NINGUNA;
    1456:	cf 5e       	subi	r28, 0xEF	; 239
    1458:	de 4f       	sbci	r29, 0xFE	; 254
    145a:	18 82       	st	Y, r1
	}
}
    145c:	df 91       	pop	r29
    145e:	cf 91       	pop	r28
    1460:	1f 91       	pop	r17
    1462:	0f 91       	pop	r16
    1464:	ff 90       	pop	r15
    1466:	ef 90       	pop	r14
    1468:	df 90       	pop	r13
    146a:	cf 90       	pop	r12
    146c:	bf 90       	pop	r11
    146e:	af 90       	pop	r10
    1470:	9f 90       	pop	r9
    1472:	8f 90       	pop	r8
    1474:	7f 90       	pop	r7
    1476:	6f 90       	pop	r6
    1478:	5f 90       	pop	r5
    147a:	4f 90       	pop	r4
    147c:	3f 90       	pop	r3
    147e:	08 95       	ret

00001480 <Ciego_Task_Brazos_ms>:

void Ciego_Task_Brazos_ms(ModoCiego_Ctrl_t *ctx, uint8_t periodo_ms) {
    1480:	4f 92       	push	r4
    1482:	5f 92       	push	r5
    1484:	6f 92       	push	r6
    1486:	7f 92       	push	r7
    1488:	8f 92       	push	r8
    148a:	9f 92       	push	r9
    148c:	af 92       	push	r10
    148e:	bf 92       	push	r11
    1490:	cf 92       	push	r12
    1492:	df 92       	push	r13
    1494:	ef 92       	push	r14
    1496:	ff 92       	push	r15
    1498:	0f 93       	push	r16
    149a:	1f 93       	push	r17
    149c:	cf 93       	push	r28
    149e:	df 93       	push	r29
    14a0:	00 d0       	rcall	.+0      	; 0x14a2 <Ciego_Task_Brazos_ms+0x22>
    14a2:	00 d0       	rcall	.+0      	; 0x14a4 <Ciego_Task_Brazos_ms+0x24>
    14a4:	00 d0       	rcall	.+0      	; 0x14a6 <Ciego_Task_Brazos_ms+0x26>
    14a6:	cd b7       	in	r28, 0x3d	; 61
    14a8:	de b7       	in	r29, 0x3e	; 62
	if (ctx == (void*)0 || !ctx->activo) return;
    14aa:	00 97       	sbiw	r24, 0x00	; 0
    14ac:	09 f4       	brne	.+2      	; 0x14b0 <Ciego_Task_Brazos_ms+0x30>
    14ae:	9b c1       	rjmp	.+822    	; 0x17e6 <Ciego_Task_Brazos_ms+0x366>
    14b0:	dc 01       	movw	r26, r24
    14b2:	2c 91       	ld	r18, X
    14b4:	22 23       	and	r18, r18
    14b6:	09 f4       	brne	.+2      	; 0x14ba <Ciego_Task_Brazos_ms+0x3a>
    14b8:	96 c1       	rjmp	.+812    	; 0x17e6 <Ciego_Task_Brazos_ms+0x366>
    14ba:	c6 2e       	mov	r12, r22
    14bc:	8c 01       	movw	r16, r24

	SG90_t *servos[3] = {&servo1, &servo2, &servo3};
    14be:	86 e0       	ldi	r24, 0x06	; 6
    14c0:	e6 e0       	ldi	r30, 0x06	; 6
    14c2:	f1 e0       	ldi	r31, 0x01	; 1
    14c4:	de 01       	movw	r26, r28
    14c6:	11 96       	adiw	r26, 0x01	; 1
    14c8:	01 90       	ld	r0, Z+
    14ca:	0d 92       	st	X+, r0
    14cc:	8a 95       	dec	r24
    14ce:	e1 f7       	brne	.-8      	; 0x14c8 <Ciego_Task_Brazos_ms+0x48>

	// Procesar de manera independiente la física de cada caja virtual
	for (uint8_t i = 0; i < CIEGO_MAX_CAJAS; i++) {
    14d0:	d1 2c       	mov	r13, r1
    14d2:	85 c1       	rjmp	.+778    	; 0x17de <Ciego_Task_Brazos_ms+0x35e>
		Ciego_CajaVirtual_t *c = &ctx->cajas_virtuales[i];
    14d4:	ed 2c       	mov	r14, r13
    14d6:	f1 2c       	mov	r15, r1

		if (c->activa) {
    14d8:	8f e1       	ldi	r24, 0x1F	; 31
    14da:	8e 9d       	mul	r24, r14
    14dc:	f0 01       	movw	r30, r0
    14de:	8f 9d       	mul	r24, r15
    14e0:	f0 0d       	add	r31, r0
    14e2:	11 24       	eor	r1, r1
    14e4:	e0 0f       	add	r30, r16
    14e6:	f1 1f       	adc	r31, r17
    14e8:	85 89       	ldd	r24, Z+21	; 0x15
    14ea:	88 23       	and	r24, r24
    14ec:	09 f4       	brne	.+2      	; 0x14f0 <Ciego_Task_Brazos_ms+0x70>
    14ee:	76 c1       	rjmp	.+748    	; 0x17dc <Ciego_Task_Brazos_ms+0x35c>
			// Descontar base de tiempos (incluso si está golpeando, el tiempo físico avanza)
			c->t_s1_ms -= periodo_ms;
    14f0:	8c 2d       	mov	r24, r12
    14f2:	90 e0       	ldi	r25, 0x00	; 0
    14f4:	a0 e0       	ldi	r26, 0x00	; 0
    14f6:	b0 e0       	ldi	r27, 0x00	; 0
    14f8:	2f e1       	ldi	r18, 0x1F	; 31
    14fa:	2e 9d       	mul	r18, r14
    14fc:	f0 01       	movw	r30, r0
    14fe:	2f 9d       	mul	r18, r15
    1500:	f0 0d       	add	r31, r0
    1502:	11 24       	eor	r1, r1
    1504:	e0 0f       	add	r30, r16
    1506:	f1 1f       	adc	r31, r17
    1508:	40 8d       	ldd	r20, Z+24	; 0x18
    150a:	51 8d       	ldd	r21, Z+25	; 0x19
    150c:	62 8d       	ldd	r22, Z+26	; 0x1a
    150e:	73 8d       	ldd	r23, Z+27	; 0x1b
    1510:	48 1b       	sub	r20, r24
    1512:	59 0b       	sbc	r21, r25
    1514:	6a 0b       	sbc	r22, r26
    1516:	7b 0b       	sbc	r23, r27
    1518:	40 8f       	std	Z+24, r20	; 0x18
    151a:	51 8f       	std	Z+25, r21	; 0x19
    151c:	62 8f       	std	Z+26, r22	; 0x1a
    151e:	73 8f       	std	Z+27, r23	; 0x1b
			c->t_s2_ms -= periodo_ms;
    1520:	84 8c       	ldd	r8, Z+28	; 0x1c
    1522:	95 8c       	ldd	r9, Z+29	; 0x1d
    1524:	a6 8c       	ldd	r10, Z+30	; 0x1e
    1526:	b7 8c       	ldd	r11, Z+31	; 0x1f
    1528:	88 1a       	sub	r8, r24
    152a:	99 0a       	sbc	r9, r25
    152c:	aa 0a       	sbc	r10, r26
    152e:	bb 0a       	sbc	r11, r27
    1530:	84 8e       	std	Z+28, r8	; 0x1c
    1532:	95 8e       	std	Z+29, r9	; 0x1d
    1534:	a6 8e       	std	Z+30, r10	; 0x1e
    1536:	b7 8e       	std	Z+31, r11	; 0x1f
			c->t_s3_ms -= periodo_ms;
    1538:	80 a0       	ldd	r8, Z+32	; 0x20
    153a:	91 a0       	ldd	r9, Z+33	; 0x21
    153c:	a2 a0       	ldd	r10, Z+34	; 0x22
    153e:	b3 a0       	ldd	r11, Z+35	; 0x23
    1540:	88 1a       	sub	r8, r24
    1542:	99 0a       	sbc	r9, r25
    1544:	aa 0a       	sbc	r10, r26
    1546:	bb 0a       	sbc	r11, r27
    1548:	80 a2       	std	Z+32, r8	; 0x20
    154a:	91 a2       	std	Z+33, r9	; 0x21
    154c:	a2 a2       	std	Z+34, r10	; 0x22
    154e:	b3 a2       	std	Z+35, r11	; 0x23
			c->t_impacto_ms -= periodo_ms;
    1550:	84 a0       	ldd	r8, Z+36	; 0x24
    1552:	95 a0       	ldd	r9, Z+37	; 0x25
    1554:	a6 a0       	ldd	r10, Z+38	; 0x26
    1556:	b7 a0       	ldd	r11, Z+39	; 0x27
    1558:	88 1a       	sub	r8, r24
    155a:	99 0a       	sbc	r9, r25
    155c:	aa 0a       	sbc	r10, r26
    155e:	bb 0a       	sbc	r11, r27
    1560:	84 a2       	std	Z+36, r8	; 0x24
    1562:	95 a2       	std	Z+37, r9	; 0x25
    1564:	a6 a2       	std	Z+38, r10	; 0x26
    1566:	b7 a2       	std	Z+39, r11	; 0x27
			c->t_fin_ms -= periodo_ms;
    1568:	80 a4       	ldd	r8, Z+40	; 0x28
    156a:	91 a4       	ldd	r9, Z+41	; 0x29
    156c:	a2 a4       	ldd	r10, Z+42	; 0x2a
    156e:	b3 a4       	ldd	r11, Z+43	; 0x2b
    1570:	24 01       	movw	r4, r8
    1572:	35 01       	movw	r6, r10
    1574:	48 1a       	sub	r4, r24
    1576:	59 0a       	sbc	r5, r25
    1578:	6a 0a       	sbc	r6, r26
    157a:	7b 0a       	sbc	r7, r27
    157c:	40 a6       	std	Z+40, r4	; 0x28
    157e:	51 a6       	std	Z+41, r5	; 0x29
    1580:	62 a6       	std	Z+42, r6	; 0x2a
    1582:	73 a6       	std	Z+43, r7	; 0x2b

			// Disparar las transiciones topológicas falsas para engańar a la HMI
			if (c->t_s1_ms <= 0 && !c->paso_s1) { Tracker_TransicionSensor(1); c->paso_s1 = 1; }
    1584:	14 16       	cp	r1, r20
    1586:	15 06       	cpc	r1, r21
    1588:	16 06       	cpc	r1, r22
    158a:	17 06       	cpc	r1, r23
    158c:	c4 f0       	brlt	.+48     	; 0x15be <Ciego_Task_Brazos_ms+0x13e>
    158e:	8f e1       	ldi	r24, 0x1F	; 31
    1590:	8e 9d       	mul	r24, r14
    1592:	f0 01       	movw	r30, r0
    1594:	8f 9d       	mul	r24, r15
    1596:	f0 0d       	add	r31, r0
    1598:	11 24       	eor	r1, r1
    159a:	e0 0f       	add	r30, r16
    159c:	f1 1f       	adc	r31, r17
    159e:	84 a5       	ldd	r24, Z+44	; 0x2c
    15a0:	81 11       	cpse	r24, r1
    15a2:	0d c0       	rjmp	.+26     	; 0x15be <Ciego_Task_Brazos_ms+0x13e>
    15a4:	81 e0       	ldi	r24, 0x01	; 1
    15a6:	0e 94 34 12 	call	0x2468	; 0x2468 <Tracker_TransicionSensor>
    15aa:	8f e1       	ldi	r24, 0x1F	; 31
    15ac:	8e 9d       	mul	r24, r14
    15ae:	f0 01       	movw	r30, r0
    15b0:	8f 9d       	mul	r24, r15
    15b2:	f0 0d       	add	r31, r0
    15b4:	11 24       	eor	r1, r1
    15b6:	e0 0f       	add	r30, r16
    15b8:	f1 1f       	adc	r31, r17
    15ba:	81 e0       	ldi	r24, 0x01	; 1
    15bc:	84 a7       	std	Z+44, r24	; 0x2c
			if (c->t_s2_ms <= 0 && !c->paso_s2) { Tracker_TransicionSensor(2); c->paso_s2 = 1; }
    15be:	8f e1       	ldi	r24, 0x1F	; 31
    15c0:	8e 9d       	mul	r24, r14
    15c2:	f0 01       	movw	r30, r0
    15c4:	8f 9d       	mul	r24, r15
    15c6:	f0 0d       	add	r31, r0
    15c8:	11 24       	eor	r1, r1
    15ca:	e0 0f       	add	r30, r16
    15cc:	f1 1f       	adc	r31, r17
    15ce:	84 8d       	ldd	r24, Z+28	; 0x1c
    15d0:	95 8d       	ldd	r25, Z+29	; 0x1d
    15d2:	a6 8d       	ldd	r26, Z+30	; 0x1e
    15d4:	b7 8d       	ldd	r27, Z+31	; 0x1f
    15d6:	18 16       	cp	r1, r24
    15d8:	19 06       	cpc	r1, r25
    15da:	1a 06       	cpc	r1, r26
    15dc:	1b 06       	cpc	r1, r27
    15de:	c4 f0       	brlt	.+48     	; 0x1610 <Ciego_Task_Brazos_ms+0x190>
    15e0:	8f e1       	ldi	r24, 0x1F	; 31
    15e2:	8e 9d       	mul	r24, r14
    15e4:	f0 01       	movw	r30, r0
    15e6:	8f 9d       	mul	r24, r15
    15e8:	f0 0d       	add	r31, r0
    15ea:	11 24       	eor	r1, r1
    15ec:	e0 0f       	add	r30, r16
    15ee:	f1 1f       	adc	r31, r17
    15f0:	85 a5       	ldd	r24, Z+45	; 0x2d
    15f2:	81 11       	cpse	r24, r1
    15f4:	0d c0       	rjmp	.+26     	; 0x1610 <Ciego_Task_Brazos_ms+0x190>
    15f6:	82 e0       	ldi	r24, 0x02	; 2
    15f8:	0e 94 34 12 	call	0x2468	; 0x2468 <Tracker_TransicionSensor>
    15fc:	8f e1       	ldi	r24, 0x1F	; 31
    15fe:	8e 9d       	mul	r24, r14
    1600:	f0 01       	movw	r30, r0
    1602:	8f 9d       	mul	r24, r15
    1604:	f0 0d       	add	r31, r0
    1606:	11 24       	eor	r1, r1
    1608:	e0 0f       	add	r30, r16
    160a:	f1 1f       	adc	r31, r17
    160c:	81 e0       	ldi	r24, 0x01	; 1
    160e:	85 a7       	std	Z+45, r24	; 0x2d
			if (c->t_s3_ms <= 0 && !c->paso_s3) { Tracker_TransicionSensor(3); c->paso_s3 = 1; }
    1610:	8f e1       	ldi	r24, 0x1F	; 31
    1612:	8e 9d       	mul	r24, r14
    1614:	f0 01       	movw	r30, r0
    1616:	8f 9d       	mul	r24, r15
    1618:	f0 0d       	add	r31, r0
    161a:	11 24       	eor	r1, r1
    161c:	e0 0f       	add	r30, r16
    161e:	f1 1f       	adc	r31, r17
    1620:	80 a1       	ldd	r24, Z+32	; 0x20
    1622:	91 a1       	ldd	r25, Z+33	; 0x21
    1624:	a2 a1       	ldd	r26, Z+34	; 0x22
    1626:	b3 a1       	ldd	r27, Z+35	; 0x23
    1628:	18 16       	cp	r1, r24
    162a:	19 06       	cpc	r1, r25
    162c:	1a 06       	cpc	r1, r26
    162e:	1b 06       	cpc	r1, r27
    1630:	c4 f0       	brlt	.+48     	; 0x1662 <Ciego_Task_Brazos_ms+0x1e2>
    1632:	8f e1       	ldi	r24, 0x1F	; 31
    1634:	8e 9d       	mul	r24, r14
    1636:	f0 01       	movw	r30, r0
    1638:	8f 9d       	mul	r24, r15
    163a:	f0 0d       	add	r31, r0
    163c:	11 24       	eor	r1, r1
    163e:	e0 0f       	add	r30, r16
    1640:	f1 1f       	adc	r31, r17
    1642:	86 a5       	ldd	r24, Z+46	; 0x2e
    1644:	81 11       	cpse	r24, r1
    1646:	0d c0       	rjmp	.+26     	; 0x1662 <Ciego_Task_Brazos_ms+0x1e2>
    1648:	83 e0       	ldi	r24, 0x03	; 3
    164a:	0e 94 34 12 	call	0x2468	; 0x2468 <Tracker_TransicionSensor>
    164e:	8f e1       	ldi	r24, 0x1F	; 31
    1650:	8e 9d       	mul	r24, r14
    1652:	f0 01       	movw	r30, r0
    1654:	8f 9d       	mul	r24, r15
    1656:	f0 0d       	add	r31, r0
    1658:	11 24       	eor	r1, r1
    165a:	e0 0f       	add	r30, r16
    165c:	f1 1f       	adc	r31, r17
    165e:	81 e0       	ldi	r24, 0x01	; 1
    1660:	86 a7       	std	Z+46, r24	; 0x2e

			// --- MÁQUINA DE ESTADOS DEL SERVO ---
			switch (c->estado_servo) {
    1662:	8f e1       	ldi	r24, 0x1F	; 31
    1664:	8e 9d       	mul	r24, r14
    1666:	f0 01       	movw	r30, r0
    1668:	8f 9d       	mul	r24, r15
    166a:	f0 0d       	add	r31, r0
    166c:	11 24       	eor	r1, r1
    166e:	e0 0f       	add	r30, r16
    1670:	f1 1f       	adc	r31, r17
    1672:	87 a5       	ldd	r24, Z+47	; 0x2f
    1674:	81 30       	cpi	r24, 0x01	; 1
    1676:	09 f4       	brne	.+2      	; 0x167a <Ciego_Task_Brazos_ms+0x1fa>
    1678:	5c c0       	rjmp	.+184    	; 0x1732 <Ciego_Task_Brazos_ms+0x2b2>
    167a:	20 f0       	brcs	.+8      	; 0x1684 <Ciego_Task_Brazos_ms+0x204>
    167c:	82 30       	cpi	r24, 0x02	; 2
    167e:	09 f4       	brne	.+2      	; 0x1682 <Ciego_Task_Brazos_ms+0x202>
    1680:	8d c0       	rjmp	.+282    	; 0x179c <Ciego_Task_Brazos_ms+0x31c>
    1682:	ac c0       	rjmp	.+344    	; 0x17dc <Ciego_Task_Brazos_ms+0x35c>
				case CIEGO_ESTADO_VIAJANDO:
				if (c->brazo_asignado < 3U && c->t_impacto_ms <= 0) {
    1684:	8f e1       	ldi	r24, 0x1F	; 31
    1686:	8e 9d       	mul	r24, r14
    1688:	f0 01       	movw	r30, r0
    168a:	8f 9d       	mul	r24, r15
    168c:	f0 0d       	add	r31, r0
    168e:	11 24       	eor	r1, r1
    1690:	e0 0f       	add	r30, r16
    1692:	f1 1f       	adc	r31, r17
    1694:	e7 89       	ldd	r30, Z+23	; 0x17
    1696:	e3 30       	cpi	r30, 0x03	; 3
    1698:	80 f5       	brcc	.+96     	; 0x16fa <Ciego_Task_Brazos_ms+0x27a>
    169a:	8e 9d       	mul	r24, r14
    169c:	d0 01       	movw	r26, r0
    169e:	8f 9d       	mul	r24, r15
    16a0:	b0 0d       	add	r27, r0
    16a2:	11 24       	eor	r1, r1
    16a4:	a0 0f       	add	r26, r16
    16a6:	b1 1f       	adc	r27, r17
    16a8:	94 96       	adiw	r26, 0x24	; 36
    16aa:	8d 91       	ld	r24, X+
    16ac:	9d 91       	ld	r25, X+
    16ae:	0d 90       	ld	r0, X+
    16b0:	bc 91       	ld	r27, X
    16b2:	a0 2d       	mov	r26, r0
    16b4:	18 16       	cp	r1, r24
    16b6:	19 06       	cpc	r1, r25
    16b8:	1a 06       	cpc	r1, r26
    16ba:	1b 06       	cpc	r1, r27
    16bc:	f4 f0       	brlt	.+60     	; 0x16fa <Ciego_Task_Brazos_ms+0x27a>
					// Momento del impacto físico
					SG90_SetAngle(servos[c->brazo_asignado], 0U);
    16be:	f0 e0       	ldi	r31, 0x00	; 0
    16c0:	ee 0f       	add	r30, r30
    16c2:	ff 1f       	adc	r31, r31
    16c4:	66 24       	eor	r6, r6
    16c6:	63 94       	inc	r6
    16c8:	71 2c       	mov	r7, r1
    16ca:	6c 0e       	add	r6, r28
    16cc:	7d 1e       	adc	r7, r29
    16ce:	e6 0d       	add	r30, r6
    16d0:	f7 1d       	adc	r31, r7
    16d2:	60 e0       	ldi	r22, 0x00	; 0
    16d4:	80 81       	ld	r24, Z
    16d6:	91 81       	ldd	r25, Z+1	; 0x01
    16d8:	0e 94 7a 11 	call	0x22f4	; 0x22f4 <SG90_SetAngle>
					c->cronometro_servo_ms = 0;
    16dc:	8f e1       	ldi	r24, 0x1F	; 31
    16de:	8e 9d       	mul	r24, r14
    16e0:	f0 01       	movw	r30, r0
    16e2:	8f 9d       	mul	r24, r15
    16e4:	f0 0d       	add	r31, r0
    16e6:	11 24       	eor	r1, r1
    16e8:	e0 0f       	add	r30, r16
    16ea:	f1 1f       	adc	r31, r17
    16ec:	10 aa       	std	Z+48, r1	; 0x30
    16ee:	11 aa       	std	Z+49, r1	; 0x31
    16f0:	12 aa       	std	Z+50, r1	; 0x32
    16f2:	13 aa       	std	Z+51, r1	; 0x33
					c->estado_servo = CIEGO_ESTADO_PATEANDO;
    16f4:	81 e0       	ldi	r24, 0x01	; 1
    16f6:	87 a7       	std	Z+47, r24	; 0x2f
    16f8:	71 c0       	rjmp	.+226    	; 0x17dc <Ciego_Task_Brazos_ms+0x35c>
				}
				else if (c->t_fin_ms <= 0) {
    16fa:	8f e1       	ldi	r24, 0x1F	; 31
    16fc:	8e 9d       	mul	r24, r14
    16fe:	f0 01       	movw	r30, r0
    1700:	8f 9d       	mul	r24, r15
    1702:	f0 0d       	add	r31, r0
    1704:	11 24       	eor	r1, r1
    1706:	e0 0f       	add	r30, r16
    1708:	f1 1f       	adc	r31, r17
    170a:	80 a5       	ldd	r24, Z+40	; 0x28
    170c:	91 a5       	ldd	r25, Z+41	; 0x29
    170e:	a2 a5       	ldd	r26, Z+42	; 0x2a
    1710:	b3 a5       	ldd	r27, Z+43	; 0x2b
    1712:	18 16       	cp	r1, r24
    1714:	19 06       	cpc	r1, r25
    1716:	1a 06       	cpc	r1, r26
    1718:	1b 06       	cpc	r1, r27
    171a:	0c f4       	brge	.+2      	; 0x171e <Ciego_Task_Brazos_ms+0x29e>
    171c:	5f c0       	rjmp	.+190    	; 0x17dc <Ciego_Task_Brazos_ms+0x35c>
					// Si era una CAJA_DESCONOCIDA o falló el golpe, se cae al tacho
					c->activa = 0;
    171e:	8f e1       	ldi	r24, 0x1F	; 31
    1720:	8e 9d       	mul	r24, r14
    1722:	f0 01       	movw	r30, r0
    1724:	8f 9d       	mul	r24, r15
    1726:	f0 0d       	add	r31, r0
    1728:	11 24       	eor	r1, r1
    172a:	e0 0f       	add	r30, r16
    172c:	f1 1f       	adc	r31, r17
    172e:	15 8a       	std	Z+21, r1	; 0x15
    1730:	55 c0       	rjmp	.+170    	; 0x17dc <Ciego_Task_Brazos_ms+0x35c>
				}
				break;

				case CIEGO_ESTADO_PATEANDO:
				c->cronometro_servo_ms += periodo_ms;
    1732:	8f e1       	ldi	r24, 0x1F	; 31
    1734:	8e 9d       	mul	r24, r14
    1736:	f0 01       	movw	r30, r0
    1738:	8f 9d       	mul	r24, r15
    173a:	f0 0d       	add	r31, r0
    173c:	11 24       	eor	r1, r1
    173e:	e0 0f       	add	r30, r16
    1740:	f1 1f       	adc	r31, r17
    1742:	80 a9       	ldd	r24, Z+48	; 0x30
    1744:	91 a9       	ldd	r25, Z+49	; 0x31
    1746:	a2 a9       	ldd	r26, Z+50	; 0x32
    1748:	b3 a9       	ldd	r27, Z+51	; 0x33
    174a:	8c 0d       	add	r24, r12
    174c:	91 1d       	adc	r25, r1
    174e:	a1 1d       	adc	r26, r1
    1750:	b1 1d       	adc	r27, r1
    1752:	80 ab       	std	Z+48, r24	; 0x30
    1754:	91 ab       	std	Z+49, r25	; 0x31
    1756:	a2 ab       	std	Z+50, r26	; 0x32
    1758:	b3 ab       	std	Z+51, r27	; 0x33
				if (c->cronometro_servo_ms >= 400U) { // Tiempo de arrastre
    175a:	80 39       	cpi	r24, 0x90	; 144
    175c:	91 40       	sbci	r25, 0x01	; 1
    175e:	a1 05       	cpc	r26, r1
    1760:	b1 05       	cpc	r27, r1
    1762:	e0 f1       	brcs	.+120    	; 0x17dc <Ciego_Task_Brazos_ms+0x35c>
					SG90_SetAngle(servos[c->brazo_asignado], 90U);
    1764:	7f 01       	movw	r14, r30
    1766:	e7 89       	ldd	r30, Z+23	; 0x17
    1768:	f0 e0       	ldi	r31, 0x00	; 0
    176a:	ee 0f       	add	r30, r30
    176c:	ff 1f       	adc	r31, r31
    176e:	44 24       	eor	r4, r4
    1770:	43 94       	inc	r4
    1772:	51 2c       	mov	r5, r1
    1774:	4c 0e       	add	r4, r28
    1776:	5d 1e       	adc	r5, r29
    1778:	e4 0d       	add	r30, r4
    177a:	f5 1d       	adc	r31, r5
    177c:	6a e5       	ldi	r22, 0x5A	; 90
    177e:	80 81       	ld	r24, Z
    1780:	91 81       	ldd	r25, Z+1	; 0x01
    1782:	0e 94 7a 11 	call	0x22f4	; 0x22f4 <SG90_SetAngle>
					c->cronometro_servo_ms = 0;
    1786:	d7 01       	movw	r26, r14
    1788:	d0 96       	adiw	r26, 0x30	; 48
    178a:	1d 92       	st	X+, r1
    178c:	1d 92       	st	X+, r1
    178e:	1d 92       	st	X+, r1
    1790:	1c 92       	st	X, r1
    1792:	d3 97       	sbiw	r26, 0x33	; 51
					c->estado_servo = CIEGO_ESTADO_RETRAYENDO;
    1794:	82 e0       	ldi	r24, 0x02	; 2
    1796:	9f 96       	adiw	r26, 0x2f	; 47
    1798:	8c 93       	st	X, r24
    179a:	20 c0       	rjmp	.+64     	; 0x17dc <Ciego_Task_Brazos_ms+0x35c>
				}
				break;

				case CIEGO_ESTADO_RETRAYENDO:
				c->cronometro_servo_ms += periodo_ms;
    179c:	8f e1       	ldi	r24, 0x1F	; 31
    179e:	8e 9d       	mul	r24, r14
    17a0:	f0 01       	movw	r30, r0
    17a2:	8f 9d       	mul	r24, r15
    17a4:	f0 0d       	add	r31, r0
    17a6:	11 24       	eor	r1, r1
    17a8:	e0 0f       	add	r30, r16
    17aa:	f1 1f       	adc	r31, r17
    17ac:	80 a9       	ldd	r24, Z+48	; 0x30
    17ae:	91 a9       	ldd	r25, Z+49	; 0x31
    17b0:	a2 a9       	ldd	r26, Z+50	; 0x32
    17b2:	b3 a9       	ldd	r27, Z+51	; 0x33
    17b4:	8c 0d       	add	r24, r12
    17b6:	91 1d       	adc	r25, r1
    17b8:	a1 1d       	adc	r26, r1
    17ba:	b1 1d       	adc	r27, r1
    17bc:	80 ab       	std	Z+48, r24	; 0x30
    17be:	91 ab       	std	Z+49, r25	; 0x31
    17c0:	a2 ab       	std	Z+50, r26	; 0x32
    17c2:	b3 ab       	std	Z+51, r27	; 0x33
				if (c->cronometro_servo_ms >= 200U) { // Tiempo seguro de retracción
    17c4:	88 3c       	cpi	r24, 0xC8	; 200
    17c6:	91 05       	cpc	r25, r1
    17c8:	a1 05       	cpc	r26, r1
    17ca:	b1 05       	cpc	r27, r1
    17cc:	38 f0       	brcs	.+14     	; 0x17dc <Ciego_Task_Brazos_ms+0x35c>
					// El golpe terminó exitosamente. Avisamos a la HMI y la matamos
					Tracker_CajaEyectada(c->tipo);
    17ce:	7f 01       	movw	r14, r30
    17d0:	86 89       	ldd	r24, Z+22	; 0x16
    17d2:	0e 94 aa 12 	call	0x2554	; 0x2554 <Tracker_CajaEyectada>
					c->activa = 0;
    17d6:	d7 01       	movw	r26, r14
    17d8:	55 96       	adiw	r26, 0x15	; 21
    17da:	1c 92       	st	X, r1
	if (ctx == (void*)0 || !ctx->activo) return;

	SG90_t *servos[3] = {&servo1, &servo2, &servo3};

	// Procesar de manera independiente la física de cada caja virtual
	for (uint8_t i = 0; i < CIEGO_MAX_CAJAS; i++) {
    17dc:	d3 94       	inc	r13
    17de:	b7 e0       	ldi	r27, 0x07	; 7
    17e0:	bd 15       	cp	r27, r13
    17e2:	08 f0       	brcs	.+2      	; 0x17e6 <Ciego_Task_Brazos_ms+0x366>
    17e4:	77 ce       	rjmp	.-786    	; 0x14d4 <Ciego_Task_Brazos_ms+0x54>
				}
				break;
			}
		}
	}
    17e6:	26 96       	adiw	r28, 0x06	; 6
    17e8:	0f b6       	in	r0, 0x3f	; 63
    17ea:	f8 94       	cli
    17ec:	de bf       	out	0x3e, r29	; 62
    17ee:	0f be       	out	0x3f, r0	; 63
    17f0:	cd bf       	out	0x3d, r28	; 61
    17f2:	df 91       	pop	r29
    17f4:	cf 91       	pop	r28
    17f6:	1f 91       	pop	r17
    17f8:	0f 91       	pop	r16
    17fa:	ff 90       	pop	r15
    17fc:	ef 90       	pop	r14
    17fe:	df 90       	pop	r13
    1800:	cf 90       	pop	r12
    1802:	bf 90       	pop	r11
    1804:	af 90       	pop	r10
    1806:	9f 90       	pop	r9
    1808:	8f 90       	pop	r8
    180a:	7f 90       	pop	r7
    180c:	6f 90       	pop	r6
    180e:	5f 90       	pop	r5
    1810:	4f 90       	pop	r4
    1812:	08 95       	ret

00001814 <IR_Init>:
#include "tcrt5000.h"

void IR_Init(IR_Sensor_t *dev, ir_read_cb_t read, ir_event_cb_t on_detected, ir_event_cb_t on_released) {
    1814:	cf 93       	push	r28
    1816:	df 93       	push	r29
    1818:	ec 01       	movw	r28, r24
	dev->read_pin    = read;
    181a:	79 83       	std	Y+1, r23	; 0x01
    181c:	68 83       	st	Y, r22
	dev->on_detected = on_detected;
    181e:	5b 83       	std	Y+3, r21	; 0x03
    1820:	4a 83       	std	Y+2, r20	; 0x02
	dev->on_released = on_released;
    1822:	3d 83       	std	Y+5, r19	; 0x05
    1824:	2c 83       	std	Y+4, r18	; 0x04
	
	uint8_t init_read = (read != (void*)0) ? read() : 0U;
    1826:	61 15       	cp	r22, r1
    1828:	71 05       	cpc	r23, r1
    182a:	19 f0       	breq	.+6      	; 0x1832 <IR_Init+0x1e>
    182c:	fb 01       	movw	r30, r22
    182e:	09 95       	icall
    1830:	01 c0       	rjmp	.+2      	; 0x1834 <IR_Init+0x20>
    1832:	80 e0       	ldi	r24, 0x00	; 0
	dev->stable_state = init_read;
    1834:	8e 83       	std	Y+6, r24	; 0x06
	dev->debounce_cnt = 0;
    1836:	1f 82       	std	Y+7, r1	; 0x07
	
	/* Carga inicial con el valor por defecto seguro */
	dev->debounce_threshold = IR_DEFAULT_DEBOUNCE_THRESHOLD;
    1838:	89 e1       	ldi	r24, 0x19	; 25
    183a:	88 87       	std	Y+8, r24	; 0x08
}
    183c:	df 91       	pop	r29
    183e:	cf 91       	pop	r28
    1840:	08 95       	ret

00001842 <IR_TuneParams>:

/* Nueva función para configurar el comportamiento desde el main */
void IR_TuneParams(IR_Sensor_t *dev, uint8_t debounce_threshold) {
	if (debounce_threshold > 0) {
    1842:	66 23       	and	r22, r22
    1844:	11 f0       	breq	.+4      	; 0x184a <IR_TuneParams+0x8>
		dev->debounce_threshold = debounce_threshold;
    1846:	fc 01       	movw	r30, r24
    1848:	60 87       	std	Z+8, r22	; 0x08
    184a:	08 95       	ret

0000184c <IR_Tick>:
	}
}

void IR_Tick(IR_Sensor_t *dev) {
    184c:	cf 93       	push	r28
    184e:	df 93       	push	r29
	if (dev->read_pin == (void*)0) return;
    1850:	dc 01       	movw	r26, r24
    1852:	ed 91       	ld	r30, X+
    1854:	fc 91       	ld	r31, X
    1856:	30 97       	sbiw	r30, 0x00	; 0
    1858:	e1 f0       	breq	.+56     	; 0x1892 <IR_Tick+0x46>
    185a:	ec 01       	movw	r28, r24

	uint8_t raw_sample = dev->read_pin();
    185c:	09 95       	icall

	// Comparamos contra el estado estable usando el umbral dinámico de la estructura
	if (raw_sample != dev->stable_state) {
    185e:	9e 81       	ldd	r25, Y+6	; 0x06
    1860:	89 17       	cp	r24, r25
    1862:	b1 f0       	breq	.+44     	; 0x1890 <IR_Tick+0x44>
		dev->debounce_cnt++;
    1864:	9f 81       	ldd	r25, Y+7	; 0x07
    1866:	9f 5f       	subi	r25, 0xFF	; 255
    1868:	9f 83       	std	Y+7, r25	; 0x07
		
		if (dev->debounce_cnt >= dev->debounce_threshold) {
    186a:	28 85       	ldd	r18, Y+8	; 0x08
    186c:	92 17       	cp	r25, r18
    186e:	88 f0       	brcs	.+34     	; 0x1892 <IR_Tick+0x46>
			dev->stable_state = raw_sample;
    1870:	8e 83       	std	Y+6, r24	; 0x06
			dev->debounce_cnt = 0;
    1872:	1f 82       	std	Y+7, r1	; 0x07
			
			if (dev->stable_state) {
    1874:	88 23       	and	r24, r24
    1876:	31 f0       	breq	.+12     	; 0x1884 <IR_Tick+0x38>
				if (dev->on_detected) dev->on_detected();
    1878:	ea 81       	ldd	r30, Y+2	; 0x02
    187a:	fb 81       	ldd	r31, Y+3	; 0x03
    187c:	30 97       	sbiw	r30, 0x00	; 0
    187e:	49 f0       	breq	.+18     	; 0x1892 <IR_Tick+0x46>
    1880:	09 95       	icall
    1882:	07 c0       	rjmp	.+14     	; 0x1892 <IR_Tick+0x46>
				} else {
				if (dev->on_released) dev->on_released();
    1884:	ec 81       	ldd	r30, Y+4	; 0x04
    1886:	fd 81       	ldd	r31, Y+5	; 0x05
    1888:	30 97       	sbiw	r30, 0x00	; 0
    188a:	19 f0       	breq	.+6      	; 0x1892 <IR_Tick+0x46>
    188c:	09 95       	icall
    188e:	01 c0       	rjmp	.+2      	; 0x1892 <IR_Tick+0x46>
			}
		}
		} else {
		dev->debounce_cnt = 0;
    1890:	1f 82       	std	Y+7, r1	; 0x07
	}
}
    1892:	df 91       	pop	r29
    1894:	cf 91       	pop	r28
    1896:	08 95       	ret

00001898 <hal_servo1>:
uint8_t hal_s1(void) { return (PIND & (1 << PORTD2)) ? 0U : 1U; }
uint8_t hal_s2(void) { return (PIND & (1 << PORTD3)) ? 0U : 1U; }
uint8_t hal_s3(void) { return (PIND & (1 << PORTD4)) ? 0U : 1U; }

void hal_trig(uint8_t s) { if (s) PORTB |= (1 << PORTB1); else PORTB &= ~(1 << PORTB1); }
uint8_t hal_echo(void) { return (PINB & (1 << PORTB2)) ? 1U : 0U; }
    1898:	88 23       	and	r24, r24
    189a:	21 f0       	breq	.+8      	; 0x18a4 <hal_servo1+0xc>
    189c:	8b b1       	in	r24, 0x0b	; 11
    189e:	80 68       	ori	r24, 0x80	; 128
    18a0:	8b b9       	out	0x0b, r24	; 11
    18a2:	08 95       	ret
    18a4:	8b b1       	in	r24, 0x0b	; 11
    18a6:	8f 77       	andi	r24, 0x7F	; 127
    18a8:	8b b9       	out	0x0b, r24	; 11
    18aa:	08 95       	ret

000018ac <hal_servo2>:
    18ac:	88 23       	and	r24, r24
    18ae:	21 f0       	breq	.+8      	; 0x18b8 <hal_servo2+0xc>
    18b0:	85 b1       	in	r24, 0x05	; 5
    18b2:	80 61       	ori	r24, 0x10	; 16
    18b4:	85 b9       	out	0x05, r24	; 5
    18b6:	08 95       	ret
    18b8:	85 b1       	in	r24, 0x05	; 5
    18ba:	8f 7e       	andi	r24, 0xEF	; 239
    18bc:	85 b9       	out	0x05, r24	; 5
    18be:	08 95       	ret

000018c0 <hal_servo3>:
    18c0:	88 23       	and	r24, r24
    18c2:	21 f0       	breq	.+8      	; 0x18cc <hal_servo3+0xc>
    18c4:	85 b1       	in	r24, 0x05	; 5
    18c6:	88 60       	ori	r24, 0x08	; 8
    18c8:	85 b9       	out	0x05, r24	; 5
    18ca:	08 95       	ret
    18cc:	85 b1       	in	r24, 0x05	; 5
    18ce:	87 7f       	andi	r24, 0xF7	; 247
    18d0:	85 b9       	out	0x05, r24	; 5
    18d2:	08 95       	ret

000018d4 <hal_s0>:
    18d4:	89 b1       	in	r24, 0x09	; 9
    18d6:	82 95       	swap	r24
    18d8:	86 95       	lsr	r24
    18da:	87 70       	andi	r24, 0x07	; 7
    18dc:	91 e0       	ldi	r25, 0x01	; 1
    18de:	89 27       	eor	r24, r25
    18e0:	81 70       	andi	r24, 0x01	; 1
    18e2:	08 95       	ret

000018e4 <hal_s1>:
    18e4:	89 b1       	in	r24, 0x09	; 9
    18e6:	86 95       	lsr	r24
    18e8:	86 95       	lsr	r24
    18ea:	91 e0       	ldi	r25, 0x01	; 1
    18ec:	89 27       	eor	r24, r25
    18ee:	81 70       	andi	r24, 0x01	; 1
    18f0:	08 95       	ret

000018f2 <hal_s2>:
    18f2:	89 b1       	in	r24, 0x09	; 9
    18f4:	86 95       	lsr	r24
    18f6:	86 95       	lsr	r24
    18f8:	86 95       	lsr	r24
    18fa:	91 e0       	ldi	r25, 0x01	; 1
    18fc:	89 27       	eor	r24, r25
    18fe:	81 70       	andi	r24, 0x01	; 1
    1900:	08 95       	ret

00001902 <hal_s3>:
    1902:	89 b1       	in	r24, 0x09	; 9
    1904:	82 95       	swap	r24
    1906:	8f 70       	andi	r24, 0x0F	; 15
    1908:	91 e0       	ldi	r25, 0x01	; 1
    190a:	89 27       	eor	r24, r25
    190c:	81 70       	andi	r24, 0x01	; 1
    190e:	08 95       	ret

00001910 <hal_trig>:
    1910:	88 23       	and	r24, r24
    1912:	21 f0       	breq	.+8      	; 0x191c <hal_trig+0xc>
    1914:	85 b1       	in	r24, 0x05	; 5
    1916:	82 60       	ori	r24, 0x02	; 2
    1918:	85 b9       	out	0x05, r24	; 5
    191a:	08 95       	ret
    191c:	85 b1       	in	r24, 0x05	; 5
    191e:	8d 7f       	andi	r24, 0xFD	; 253
    1920:	85 b9       	out	0x05, r24	; 5
    1922:	08 95       	ret

00001924 <on_resultado>:
    1924:	cf 92       	push	r12
    1926:	df 92       	push	r13
    1928:	ef 92       	push	r14
    192a:	ff 92       	push	r15
    192c:	cf 93       	push	r28
    192e:	df 93       	push	r29
    1930:	1f 92       	push	r1
    1932:	cd b7       	in	r28, 0x3d	; 61
    1934:	de b7       	in	r29, 0x3e	; 62
    1936:	6b 01       	movw	r12, r22
    1938:	7c 01       	movw	r14, r24
    193a:	20 e0       	ldi	r18, 0x00	; 0
    193c:	30 e0       	ldi	r19, 0x00	; 0
    193e:	a9 01       	movw	r20, r18
    1940:	0e 94 6b 13 	call	0x26d6	; 0x26d6 <__cmpsf2>
    1944:	88 23       	and	r24, r24
    1946:	84 f4       	brge	.+32     	; 0x1968 <on_resultado+0x44>
    1948:	80 91 f0 02 	lds	r24, 0x02F0	; 0x8002f0 <mi_clasificador>
    194c:	83 30       	cpi	r24, 0x03	; 3
    194e:	91 f4       	brne	.+36     	; 0x1974 <on_resultado+0x50>
    1950:	10 92 f0 02 	sts	0x02F0, r1	; 0x8002f0 <mi_clasificador>
    1954:	8f ef       	ldi	r24, 0xFF	; 255
    1956:	89 83       	std	Y+1, r24	; 0x01
    1958:	41 e0       	ldi	r20, 0x01	; 1
    195a:	be 01       	movw	r22, r28
    195c:	6f 5f       	subi	r22, 0xFF	; 255
    195e:	7f 4f       	sbci	r23, 0xFF	; 255
    1960:	83 e1       	ldi	r24, 0x13	; 19
    1962:	0e 94 dc 10 	call	0x21b8	; 0x21b8 <Encode>
    1966:	06 c0       	rjmp	.+12     	; 0x1974 <on_resultado+0x50>
    1968:	b7 01       	movw	r22, r14
    196a:	a6 01       	movw	r20, r12
    196c:	80 ef       	ldi	r24, 0xF0	; 240
    196e:	92 e0       	ldi	r25, 0x02	; 2
    1970:	0e 94 bb 02 	call	0x576	; 0x576 <Clasificador_Ultrasonico_Callback>
    1974:	0f 90       	pop	r0
    1976:	df 91       	pop	r29
    1978:	cf 91       	pop	r28
    197a:	ff 90       	pop	r15
    197c:	ef 90       	pop	r14
    197e:	df 90       	pop	r13
    1980:	cf 90       	pop	r12
    1982:	08 95       	ret

00001984 <on_s0_released>:
    1984:	cf 93       	push	r28
    1986:	df 93       	push	r29
    1988:	00 d0       	rcall	.+0      	; 0x198a <on_s0_released+0x6>
    198a:	00 d0       	rcall	.+0      	; 0x198c <on_s0_released+0x8>
    198c:	cd b7       	in	r28, 0x3d	; 61
    198e:	de b7       	in	r29, 0x3e	; 62
    1990:	80 91 f0 02 	lds	r24, 0x02F0	; 0x8002f0 <mi_clasificador>
    1994:	81 11       	cpse	r24, r1
    1996:	0e c0       	rjmp	.+28     	; 0x19b4 <on_s0_released+0x30>
    1998:	80 91 c8 01 	lds	r24, 0x01C8	; 0x8001c8 <mi_modo_ciego>
    199c:	81 11       	cpse	r24, r1
    199e:	0a c0       	rjmp	.+20     	; 0x19b4 <on_s0_released+0x30>
    19a0:	1b 82       	std	Y+3, r1	; 0x03
    19a2:	1c 82       	std	Y+4, r1	; 0x04
    19a4:	42 e0       	ldi	r20, 0x02	; 2
    19a6:	be 01       	movw	r22, r28
    19a8:	6d 5f       	subi	r22, 0xFD	; 253
    19aa:	7f 4f       	sbci	r23, 0xFF	; 255
    19ac:	8e e5       	ldi	r24, 0x5E	; 94
    19ae:	0e 94 dc 10 	call	0x21b8	; 0x21b8 <Encode>
    19b2:	1b c0       	rjmp	.+54     	; 0x19ea <on_s0_released+0x66>
    19b4:	19 82       	std	Y+1, r1	; 0x01
    19b6:	1a 82       	std	Y+2, r1	; 0x02
    19b8:	42 e0       	ldi	r20, 0x02	; 2
    19ba:	be 01       	movw	r22, r28
    19bc:	6f 5f       	subi	r22, 0xFF	; 255
    19be:	7f 4f       	sbci	r23, 0xFF	; 255
    19c0:	8e e5       	ldi	r24, 0x5E	; 94
    19c2:	0e 94 dc 10 	call	0x21b8	; 0x21b8 <Encode>
    19c6:	60 e0       	ldi	r22, 0x00	; 0
    19c8:	80 ef       	ldi	r24, 0xF0	; 240
    19ca:	92 e0       	ldi	r25, 0x02	; 2
    19cc:	0e 94 41 02 	call	0x482	; 0x482 <Clasificador_InfrarrojoEntrada_Callback>
    19d0:	20 91 11 01 	lds	r18, 0x0111	; 0x800111 <g_now_us>
    19d4:	30 91 12 01 	lds	r19, 0x0112	; 0x800112 <g_now_us+0x1>
    19d8:	40 91 13 01 	lds	r20, 0x0113	; 0x800113 <g_now_us+0x2>
    19dc:	50 91 14 01 	lds	r21, 0x0114	; 0x800114 <g_now_us+0x3>
    19e0:	60 e0       	ldi	r22, 0x00	; 0
    19e2:	88 ec       	ldi	r24, 0xC8	; 200
    19e4:	91 e0       	ldi	r25, 0x01	; 1
    19e6:	0e 94 e1 08 	call	0x11c2	; 0x11c2 <Ciego_InfrarrojoEntrada_Callback>
    19ea:	0f 90       	pop	r0
    19ec:	0f 90       	pop	r0
    19ee:	0f 90       	pop	r0
    19f0:	0f 90       	pop	r0
    19f2:	df 91       	pop	r29
    19f4:	cf 91       	pop	r28
    19f6:	08 95       	ret

000019f8 <on_s0_detected>:
    19f8:	cf 93       	push	r28
    19fa:	df 93       	push	r29
    19fc:	00 d0       	rcall	.+0      	; 0x19fe <on_s0_detected+0x6>
    19fe:	00 d0       	rcall	.+0      	; 0x1a00 <on_s0_detected+0x8>
    1a00:	cd b7       	in	r28, 0x3d	; 61
    1a02:	de b7       	in	r29, 0x3e	; 62
    1a04:	80 91 f0 02 	lds	r24, 0x02F0	; 0x8002f0 <mi_clasificador>
    1a08:	81 11       	cpse	r24, r1
    1a0a:	0f c0       	rjmp	.+30     	; 0x1a2a <on_s0_detected+0x32>
    1a0c:	80 91 c8 01 	lds	r24, 0x01C8	; 0x8001c8 <mi_modo_ciego>
    1a10:	81 11       	cpse	r24, r1
    1a12:	0b c0       	rjmp	.+22     	; 0x1a2a <on_s0_detected+0x32>
    1a14:	1b 82       	std	Y+3, r1	; 0x03
    1a16:	81 e0       	ldi	r24, 0x01	; 1
    1a18:	8c 83       	std	Y+4, r24	; 0x04
    1a1a:	42 e0       	ldi	r20, 0x02	; 2
    1a1c:	be 01       	movw	r22, r28
    1a1e:	6d 5f       	subi	r22, 0xFD	; 253
    1a20:	7f 4f       	sbci	r23, 0xFF	; 255
    1a22:	8e e5       	ldi	r24, 0x5E	; 94
    1a24:	0e 94 dc 10 	call	0x21b8	; 0x21b8 <Encode>
    1a28:	20 c0       	rjmp	.+64     	; 0x1a6a <on_s0_detected+0x72>
    1a2a:	20 91 11 01 	lds	r18, 0x0111	; 0x800111 <g_now_us>
    1a2e:	30 91 12 01 	lds	r19, 0x0112	; 0x800112 <g_now_us+0x1>
    1a32:	40 91 13 01 	lds	r20, 0x0113	; 0x800113 <g_now_us+0x2>
    1a36:	50 91 14 01 	lds	r21, 0x0114	; 0x800114 <g_now_us+0x3>
    1a3a:	61 e0       	ldi	r22, 0x01	; 1
    1a3c:	88 ec       	ldi	r24, 0xC8	; 200
    1a3e:	91 e0       	ldi	r25, 0x01	; 1
    1a40:	0e 94 e1 08 	call	0x11c2	; 0x11c2 <Ciego_InfrarrojoEntrada_Callback>
    1a44:	19 82       	std	Y+1, r1	; 0x01
    1a46:	81 e0       	ldi	r24, 0x01	; 1
    1a48:	8a 83       	std	Y+2, r24	; 0x02
    1a4a:	42 e0       	ldi	r20, 0x02	; 2
    1a4c:	be 01       	movw	r22, r28
    1a4e:	6f 5f       	subi	r22, 0xFF	; 255
    1a50:	7f 4f       	sbci	r23, 0xFF	; 255
    1a52:	8e e5       	ldi	r24, 0x5E	; 94
    1a54:	0e 94 dc 10 	call	0x21b8	; 0x21b8 <Encode>
    1a58:	61 e0       	ldi	r22, 0x01	; 1
    1a5a:	80 ef       	ldi	r24, 0xF0	; 240
    1a5c:	92 e0       	ldi	r25, 0x02	; 2
    1a5e:	0e 94 41 02 	call	0x482	; 0x482 <Clasificador_InfrarrojoEntrada_Callback>
    1a62:	8a ea       	ldi	r24, 0xAA	; 170
    1a64:	91 e0       	ldi	r25, 0x01	; 1
    1a66:	0e 94 7b 07 	call	0xef6	; 0xef6 <HCSR04_Trigger>
    1a6a:	0f 90       	pop	r0
    1a6c:	0f 90       	pop	r0
    1a6e:	0f 90       	pop	r0
    1a70:	0f 90       	pop	r0
    1a72:	df 91       	pop	r29
    1a74:	cf 91       	pop	r28
    1a76:	08 95       	ret

00001a78 <on_s1_detected>:
    1a78:	cf 93       	push	r28
    1a7a:	df 93       	push	r29
    1a7c:	00 d0       	rcall	.+0      	; 0x1a7e <on_s1_detected+0x6>
    1a7e:	cd b7       	in	r28, 0x3d	; 61
    1a80:	de b7       	in	r29, 0x3e	; 62
    1a82:	81 e0       	ldi	r24, 0x01	; 1
    1a84:	89 83       	std	Y+1, r24	; 0x01
    1a86:	8a 83       	std	Y+2, r24	; 0x02
    1a88:	42 e0       	ldi	r20, 0x02	; 2
    1a8a:	be 01       	movw	r22, r28
    1a8c:	6f 5f       	subi	r22, 0xFF	; 255
    1a8e:	7f 4f       	sbci	r23, 0xFF	; 255
    1a90:	8e e5       	ldi	r24, 0x5E	; 94
    1a92:	0e 94 dc 10 	call	0x21b8	; 0x21b8 <Encode>
    1a96:	41 e0       	ldi	r20, 0x01	; 1
    1a98:	60 e0       	ldi	r22, 0x00	; 0
    1a9a:	80 ef       	ldi	r24, 0xF0	; 240
    1a9c:	92 e0       	ldi	r25, 0x02	; 2
    1a9e:	0e 94 67 03 	call	0x6ce	; 0x6ce <Clasificador_InfrarrojoEyector_Callback>
    1aa2:	0f 90       	pop	r0
    1aa4:	0f 90       	pop	r0
    1aa6:	df 91       	pop	r29
    1aa8:	cf 91       	pop	r28
    1aaa:	08 95       	ret

00001aac <on_s1_released>:
    1aac:	cf 93       	push	r28
    1aae:	df 93       	push	r29
    1ab0:	00 d0       	rcall	.+0      	; 0x1ab2 <on_s1_released+0x6>
    1ab2:	cd b7       	in	r28, 0x3d	; 61
    1ab4:	de b7       	in	r29, 0x3e	; 62
    1ab6:	81 e0       	ldi	r24, 0x01	; 1
    1ab8:	89 83       	std	Y+1, r24	; 0x01
    1aba:	1a 82       	std	Y+2, r1	; 0x02
    1abc:	42 e0       	ldi	r20, 0x02	; 2
    1abe:	be 01       	movw	r22, r28
    1ac0:	6f 5f       	subi	r22, 0xFF	; 255
    1ac2:	7f 4f       	sbci	r23, 0xFF	; 255
    1ac4:	8e e5       	ldi	r24, 0x5E	; 94
    1ac6:	0e 94 dc 10 	call	0x21b8	; 0x21b8 <Encode>
    1aca:	40 e0       	ldi	r20, 0x00	; 0
    1acc:	60 e0       	ldi	r22, 0x00	; 0
    1ace:	80 ef       	ldi	r24, 0xF0	; 240
    1ad0:	92 e0       	ldi	r25, 0x02	; 2
    1ad2:	0e 94 67 03 	call	0x6ce	; 0x6ce <Clasificador_InfrarrojoEyector_Callback>
    1ad6:	0f 90       	pop	r0
    1ad8:	0f 90       	pop	r0
    1ada:	df 91       	pop	r29
    1adc:	cf 91       	pop	r28
    1ade:	08 95       	ret

00001ae0 <on_s2_detected>:
    1ae0:	cf 93       	push	r28
    1ae2:	df 93       	push	r29
    1ae4:	00 d0       	rcall	.+0      	; 0x1ae6 <on_s2_detected+0x6>
    1ae6:	cd b7       	in	r28, 0x3d	; 61
    1ae8:	de b7       	in	r29, 0x3e	; 62
    1aea:	82 e0       	ldi	r24, 0x02	; 2
    1aec:	89 83       	std	Y+1, r24	; 0x01
    1aee:	81 e0       	ldi	r24, 0x01	; 1
    1af0:	8a 83       	std	Y+2, r24	; 0x02
    1af2:	42 e0       	ldi	r20, 0x02	; 2
    1af4:	be 01       	movw	r22, r28
    1af6:	6f 5f       	subi	r22, 0xFF	; 255
    1af8:	7f 4f       	sbci	r23, 0xFF	; 255
    1afa:	8e e5       	ldi	r24, 0x5E	; 94
    1afc:	0e 94 dc 10 	call	0x21b8	; 0x21b8 <Encode>
    1b00:	41 e0       	ldi	r20, 0x01	; 1
    1b02:	61 e0       	ldi	r22, 0x01	; 1
    1b04:	80 ef       	ldi	r24, 0xF0	; 240
    1b06:	92 e0       	ldi	r25, 0x02	; 2
    1b08:	0e 94 67 03 	call	0x6ce	; 0x6ce <Clasificador_InfrarrojoEyector_Callback>
    1b0c:	0f 90       	pop	r0
    1b0e:	0f 90       	pop	r0
    1b10:	df 91       	pop	r29
    1b12:	cf 91       	pop	r28
    1b14:	08 95       	ret

00001b16 <on_s2_released>:
    1b16:	cf 93       	push	r28
    1b18:	df 93       	push	r29
    1b1a:	00 d0       	rcall	.+0      	; 0x1b1c <on_s2_released+0x6>
    1b1c:	cd b7       	in	r28, 0x3d	; 61
    1b1e:	de b7       	in	r29, 0x3e	; 62
    1b20:	82 e0       	ldi	r24, 0x02	; 2
    1b22:	89 83       	std	Y+1, r24	; 0x01
    1b24:	1a 82       	std	Y+2, r1	; 0x02
    1b26:	42 e0       	ldi	r20, 0x02	; 2
    1b28:	be 01       	movw	r22, r28
    1b2a:	6f 5f       	subi	r22, 0xFF	; 255
    1b2c:	7f 4f       	sbci	r23, 0xFF	; 255
    1b2e:	8e e5       	ldi	r24, 0x5E	; 94
    1b30:	0e 94 dc 10 	call	0x21b8	; 0x21b8 <Encode>
    1b34:	40 e0       	ldi	r20, 0x00	; 0
    1b36:	61 e0       	ldi	r22, 0x01	; 1
    1b38:	80 ef       	ldi	r24, 0xF0	; 240
    1b3a:	92 e0       	ldi	r25, 0x02	; 2
    1b3c:	0e 94 67 03 	call	0x6ce	; 0x6ce <Clasificador_InfrarrojoEyector_Callback>
    1b40:	0f 90       	pop	r0
    1b42:	0f 90       	pop	r0
    1b44:	df 91       	pop	r29
    1b46:	cf 91       	pop	r28
    1b48:	08 95       	ret

00001b4a <on_s3_detected>:
    1b4a:	cf 93       	push	r28
    1b4c:	df 93       	push	r29
    1b4e:	00 d0       	rcall	.+0      	; 0x1b50 <on_s3_detected+0x6>
    1b50:	cd b7       	in	r28, 0x3d	; 61
    1b52:	de b7       	in	r29, 0x3e	; 62
    1b54:	83 e0       	ldi	r24, 0x03	; 3
    1b56:	89 83       	std	Y+1, r24	; 0x01
    1b58:	81 e0       	ldi	r24, 0x01	; 1
    1b5a:	8a 83       	std	Y+2, r24	; 0x02
    1b5c:	42 e0       	ldi	r20, 0x02	; 2
    1b5e:	be 01       	movw	r22, r28
    1b60:	6f 5f       	subi	r22, 0xFF	; 255
    1b62:	7f 4f       	sbci	r23, 0xFF	; 255
    1b64:	8e e5       	ldi	r24, 0x5E	; 94
    1b66:	0e 94 dc 10 	call	0x21b8	; 0x21b8 <Encode>
    1b6a:	41 e0       	ldi	r20, 0x01	; 1
    1b6c:	62 e0       	ldi	r22, 0x02	; 2
    1b6e:	80 ef       	ldi	r24, 0xF0	; 240
    1b70:	92 e0       	ldi	r25, 0x02	; 2
    1b72:	0e 94 67 03 	call	0x6ce	; 0x6ce <Clasificador_InfrarrojoEyector_Callback>
    1b76:	0f 90       	pop	r0
    1b78:	0f 90       	pop	r0
    1b7a:	df 91       	pop	r29
    1b7c:	cf 91       	pop	r28
    1b7e:	08 95       	ret

00001b80 <on_s3_released>:
    1b80:	cf 93       	push	r28
    1b82:	df 93       	push	r29
    1b84:	00 d0       	rcall	.+0      	; 0x1b86 <on_s3_released+0x6>
    1b86:	cd b7       	in	r28, 0x3d	; 61
    1b88:	de b7       	in	r29, 0x3e	; 62
    1b8a:	83 e0       	ldi	r24, 0x03	; 3
    1b8c:	89 83       	std	Y+1, r24	; 0x01
    1b8e:	1a 82       	std	Y+2, r1	; 0x02
    1b90:	42 e0       	ldi	r20, 0x02	; 2
    1b92:	be 01       	movw	r22, r28
    1b94:	6f 5f       	subi	r22, 0xFF	; 255
    1b96:	7f 4f       	sbci	r23, 0xFF	; 255
    1b98:	8e e5       	ldi	r24, 0x5E	; 94
    1b9a:	0e 94 dc 10 	call	0x21b8	; 0x21b8 <Encode>
    1b9e:	40 e0       	ldi	r20, 0x00	; 0
    1ba0:	62 e0       	ldi	r22, 0x02	; 2
    1ba2:	80 ef       	ldi	r24, 0xF0	; 240
    1ba4:	92 e0       	ldi	r25, 0x02	; 2
    1ba6:	0e 94 67 03 	call	0x6ce	; 0x6ce <Clasificador_InfrarrojoEyector_Callback>
    1baa:	0f 90       	pop	r0
    1bac:	0f 90       	pop	r0
    1bae:	df 91       	pop	r29
    1bb0:	cf 91       	pop	r28
    1bb2:	08 95       	ret

00001bb4 <__vector_14>:
    1bb4:	1f 92       	push	r1
    1bb6:	0f 92       	push	r0
    1bb8:	0f b6       	in	r0, 0x3f	; 63
    1bba:	0f 92       	push	r0
    1bbc:	11 24       	eor	r1, r1
    1bbe:	2f 93       	push	r18
    1bc0:	3f 93       	push	r19
    1bc2:	4f 93       	push	r20
    1bc4:	5f 93       	push	r21
    1bc6:	6f 93       	push	r22
    1bc8:	7f 93       	push	r23
    1bca:	8f 93       	push	r24
    1bcc:	9f 93       	push	r25
    1bce:	af 93       	push	r26
    1bd0:	bf 93       	push	r27
    1bd2:	ef 93       	push	r30
    1bd4:	ff 93       	push	r31
    1bd6:	80 91 11 01 	lds	r24, 0x0111	; 0x800111 <g_now_us>
    1bda:	90 91 12 01 	lds	r25, 0x0112	; 0x800112 <g_now_us+0x1>
    1bde:	a0 91 13 01 	lds	r26, 0x0113	; 0x800113 <g_now_us+0x2>
    1be2:	b0 91 14 01 	lds	r27, 0x0114	; 0x800114 <g_now_us+0x3>
    1be6:	88 53       	subi	r24, 0x38	; 56
    1be8:	9f 4f       	sbci	r25, 0xFF	; 255
    1bea:	af 4f       	sbci	r26, 0xFF	; 255
    1bec:	bf 4f       	sbci	r27, 0xFF	; 255
    1bee:	80 93 11 01 	sts	0x0111, r24	; 0x800111 <g_now_us>
    1bf2:	90 93 12 01 	sts	0x0112, r25	; 0x800112 <g_now_us+0x1>
    1bf6:	a0 93 13 01 	sts	0x0113, r26	; 0x800113 <g_now_us+0x2>
    1bfa:	b0 93 14 01 	sts	0x0114, r27	; 0x800114 <g_now_us+0x3>
    1bfe:	8e ed       	ldi	r24, 0xDE	; 222
    1c00:	92 e0       	ldi	r25, 0x02	; 2
    1c02:	0e 94 26 0c 	call	0x184c	; 0x184c <IR_Tick>
    1c06:	81 ea       	ldi	r24, 0xA1	; 161
    1c08:	91 e0       	ldi	r25, 0x01	; 1
    1c0a:	0e 94 26 0c 	call	0x184c	; 0x184c <IR_Tick>
    1c0e:	8f eb       	ldi	r24, 0xBF	; 191
    1c10:	91 e0       	ldi	r25, 0x01	; 1
    1c12:	0e 94 26 0c 	call	0x184c	; 0x184c <IR_Tick>
    1c16:	87 ee       	ldi	r24, 0xE7	; 231
    1c18:	92 e0       	ldi	r25, 0x02	; 2
    1c1a:	0e 94 26 0c 	call	0x184c	; 0x184c <IR_Tick>
    1c1e:	8a ea       	ldi	r24, 0xAA	; 170
    1c20:	91 e0       	ldi	r25, 0x01	; 1
    1c22:	0e 94 8f 07 	call	0xf1e	; 0xf1e <HCSR04_TickISR>
    1c26:	80 91 10 01 	lds	r24, 0x0110	; 0x800110 <contador.1946>
    1c2a:	8f 5f       	subi	r24, 0xFF	; 255
    1c2c:	80 93 10 01 	sts	0x0110, r24	; 0x800110 <contador.1946>
    1c30:	8a 30       	cpi	r24, 0x0A	; 10
    1c32:	28 f0       	brcs	.+10     	; 0x1c3e <__vector_14+0x8a>
    1c34:	10 92 10 01 	sts	0x0110, r1	; 0x800110 <contador.1946>
    1c38:	8e b3       	in	r24, 0x1e	; 30
    1c3a:	81 60       	ori	r24, 0x01	; 1
    1c3c:	8e bb       	out	0x1e, r24	; 30
    1c3e:	ff 91       	pop	r31
    1c40:	ef 91       	pop	r30
    1c42:	bf 91       	pop	r27
    1c44:	af 91       	pop	r26
    1c46:	9f 91       	pop	r25
    1c48:	8f 91       	pop	r24
    1c4a:	7f 91       	pop	r23
    1c4c:	6f 91       	pop	r22
    1c4e:	5f 91       	pop	r21
    1c50:	4f 91       	pop	r20
    1c52:	3f 91       	pop	r19
    1c54:	2f 91       	pop	r18
    1c56:	0f 90       	pop	r0
    1c58:	0f be       	out	0x3f, r0	; 63
    1c5a:	0f 90       	pop	r0
    1c5c:	1f 90       	pop	r1
    1c5e:	18 95       	reti

00001c60 <__vector_11>:
    1c60:	1f 92       	push	r1
    1c62:	0f 92       	push	r0
    1c64:	0f b6       	in	r0, 0x3f	; 63
    1c66:	0f 92       	push	r0
    1c68:	11 24       	eor	r1, r1
    1c6a:	8f 93       	push	r24
    1c6c:	8b b1       	in	r24, 0x0b	; 11
    1c6e:	8f 77       	andi	r24, 0x7F	; 127
    1c70:	8b b9       	out	0x0b, r24	; 11
    1c72:	85 b1       	in	r24, 0x05	; 5
    1c74:	87 7e       	andi	r24, 0xE7	; 231
    1c76:	85 b9       	out	0x05, r24	; 5
    1c78:	8f 91       	pop	r24
    1c7a:	0f 90       	pop	r0
    1c7c:	0f be       	out	0x3f, r0	; 63
    1c7e:	0f 90       	pop	r0
    1c80:	1f 90       	pop	r1
    1c82:	18 95       	reti

00001c84 <__vector_18>:
    1c84:	1f 92       	push	r1
    1c86:	0f 92       	push	r0
    1c88:	0f b6       	in	r0, 0x3f	; 63
    1c8a:	0f 92       	push	r0
    1c8c:	11 24       	eor	r1, r1
    1c8e:	8f 93       	push	r24
    1c90:	9f 93       	push	r25
    1c92:	af 93       	push	r26
    1c94:	bf 93       	push	r27
    1c96:	ef 93       	push	r30
    1c98:	ff 93       	push	r31
    1c9a:	ef e6       	ldi	r30, 0x6F	; 111
    1c9c:	f3 e0       	ldi	r31, 0x03	; 3
    1c9e:	a0 81       	ld	r26, Z
    1ca0:	b1 81       	ldd	r27, Z+1	; 0x01
    1ca2:	82 81       	ldd	r24, Z+2	; 0x02
    1ca4:	91 e0       	ldi	r25, 0x01	; 1
    1ca6:	98 0f       	add	r25, r24
    1ca8:	92 83       	std	Z+2, r25	; 0x02
    1caa:	a8 0f       	add	r26, r24
    1cac:	b1 1d       	adc	r27, r1
    1cae:	80 91 c6 00 	lds	r24, 0x00C6	; 0x8000c6 <__TEXT_REGION_LENGTH__+0x7f80c6>
    1cb2:	8c 93       	st	X, r24
    1cb4:	92 81       	ldd	r25, Z+2	; 0x02
    1cb6:	84 81       	ldd	r24, Z+4	; 0x04
    1cb8:	81 50       	subi	r24, 0x01	; 1
    1cba:	89 23       	and	r24, r25
    1cbc:	82 83       	std	Z+2, r24	; 0x02
    1cbe:	ff 91       	pop	r31
    1cc0:	ef 91       	pop	r30
    1cc2:	bf 91       	pop	r27
    1cc4:	af 91       	pop	r26
    1cc6:	9f 91       	pop	r25
    1cc8:	8f 91       	pop	r24
    1cca:	0f 90       	pop	r0
    1ccc:	0f be       	out	0x3f, r0	; 63
    1cce:	0f 90       	pop	r0
    1cd0:	1f 90       	pop	r1
    1cd2:	18 95       	reti

00001cd4 <__vector_3>:
    1cd4:	1f 92       	push	r1
    1cd6:	0f 92       	push	r0
    1cd8:	0f b6       	in	r0, 0x3f	; 63
    1cda:	0f 92       	push	r0
    1cdc:	11 24       	eor	r1, r1
    1cde:	2f 93       	push	r18
    1ce0:	3f 93       	push	r19
    1ce2:	4f 93       	push	r20
    1ce4:	5f 93       	push	r21
    1ce6:	6f 93       	push	r22
    1ce8:	7f 93       	push	r23
    1cea:	8f 93       	push	r24
    1cec:	9f 93       	push	r25
    1cee:	af 93       	push	r26
    1cf0:	bf 93       	push	r27
    1cf2:	ef 93       	push	r30
    1cf4:	ff 93       	push	r31
    1cf6:	60 91 84 00 	lds	r22, 0x0084	; 0x800084 <__TEXT_REGION_LENGTH__+0x7f8084>
    1cfa:	70 91 85 00 	lds	r23, 0x0085	; 0x800085 <__TEXT_REGION_LENGTH__+0x7f8085>
    1cfe:	1a 9b       	sbis	0x03, 2	; 3
    1d00:	02 c0       	rjmp	.+4      	; 0x1d06 <__vector_3+0x32>
    1d02:	41 e0       	ldi	r20, 0x01	; 1
    1d04:	01 c0       	rjmp	.+2      	; 0x1d08 <__vector_3+0x34>
    1d06:	40 e0       	ldi	r20, 0x00	; 0
    1d08:	8a ea       	ldi	r24, 0xAA	; 170
    1d0a:	91 e0       	ldi	r25, 0x01	; 1
    1d0c:	0e 94 a8 07 	call	0xf50	; 0xf50 <HCSR04_UpdateFromISR>
    1d10:	ff 91       	pop	r31
    1d12:	ef 91       	pop	r30
    1d14:	bf 91       	pop	r27
    1d16:	af 91       	pop	r26
    1d18:	9f 91       	pop	r25
    1d1a:	8f 91       	pop	r24
    1d1c:	7f 91       	pop	r23
    1d1e:	6f 91       	pop	r22
    1d20:	5f 91       	pop	r21
    1d22:	4f 91       	pop	r20
    1d24:	3f 91       	pop	r19
    1d26:	2f 91       	pop	r18
    1d28:	0f 90       	pop	r0
    1d2a:	0f be       	out	0x3f, r0	; 63
    1d2c:	0f 90       	pop	r0
    1d2e:	1f 90       	pop	r1
    1d30:	18 95       	reti

00001d32 <On2Ms>:
    1d32:	0f 93       	push	r16
    1d34:	1f 93       	push	r17
    1d36:	cf 93       	push	r28
    1d38:	df 93       	push	r29
    1d3a:	1f 92       	push	r1
    1d3c:	cd b7       	in	r28, 0x3d	; 61
    1d3e:	de b7       	in	r29, 0x3e	; 62
    1d40:	8e b3       	in	r24, 0x1e	; 30
    1d42:	8e 7f       	andi	r24, 0xFE	; 254
    1d44:	8e bb       	out	0x1e, r24	; 30
    1d46:	80 91 15 01 	lds	r24, 0x0115	; 0x800115 <ledMode>
    1d4a:	88 23       	and	r24, r24
    1d4c:	19 f0       	breq	.+6      	; 0x1d54 <On2Ms+0x22>
    1d4e:	81 30       	cpi	r24, 0x01	; 1
    1d50:	71 f0       	breq	.+28     	; 0x1d6e <On2Ms+0x3c>
    1d52:	10 c0       	rjmp	.+32     	; 0x1d74 <On2Ms+0x42>
    1d54:	80 91 18 01 	lds	r24, 0x0118	; 0x800118 <time100ms>
    1d58:	81 50       	subi	r24, 0x01	; 1
    1d5a:	80 93 18 01 	sts	0x0118, r24	; 0x800118 <time100ms>
    1d5e:	81 11       	cpse	r24, r1
    1d60:	09 c0       	rjmp	.+18     	; 0x1d74 <On2Ms+0x42>
    1d62:	84 e6       	ldi	r24, 0x64	; 100
    1d64:	80 93 18 01 	sts	0x0118, r24	; 0x800118 <time100ms>
    1d68:	80 e2       	ldi	r24, 0x20	; 32
    1d6a:	83 b9       	out	0x03, r24	; 3
    1d6c:	03 c0       	rjmp	.+6      	; 0x1d74 <On2Ms+0x42>
    1d6e:	85 b1       	in	r24, 0x05	; 5
    1d70:	80 62       	ori	r24, 0x20	; 32
    1d72:	85 b9       	out	0x05, r24	; 5
    1d74:	80 91 16 01 	lds	r24, 0x0116	; 0x800116 <aliveTimer>
    1d78:	90 91 17 01 	lds	r25, 0x0117	; 0x800117 <aliveTimer+0x1>
    1d7c:	01 96       	adiw	r24, 0x01	; 1
    1d7e:	90 93 17 01 	sts	0x0117, r25	; 0x800117 <aliveTimer+0x1>
    1d82:	80 93 16 01 	sts	0x0116, r24	; 0x800116 <aliveTimer>
    1d86:	8a 3f       	cpi	r24, 0xFA	; 250
    1d88:	91 05       	cpc	r25, r1
    1d8a:	60 f0       	brcs	.+24     	; 0x1da4 <On2Ms+0x72>
    1d8c:	10 92 17 01 	sts	0x0117, r1	; 0x800117 <aliveTimer+0x1>
    1d90:	10 92 16 01 	sts	0x0116, r1	; 0x800116 <aliveTimer>
    1d94:	19 82       	std	Y+1, r1	; 0x01
    1d96:	40 e0       	ldi	r20, 0x00	; 0
    1d98:	be 01       	movw	r22, r28
    1d9a:	6f 5f       	subi	r22, 0xFF	; 255
    1d9c:	7f 4f       	sbci	r23, 0xFF	; 255
    1d9e:	80 ef       	ldi	r24, 0xF0	; 240
    1da0:	0e 94 dc 10 	call	0x21b8	; 0x21b8 <Encode>
    1da4:	62 e0       	ldi	r22, 0x02	; 2
    1da6:	80 ef       	ldi	r24, 0xF0	; 240
    1da8:	92 e0       	ldi	r25, 0x02	; 2
    1daa:	0e 94 b6 03 	call	0x76c	; 0x76c <Clasificador_Task_Brazos_ms>
    1dae:	62 e0       	ldi	r22, 0x02	; 2
    1db0:	88 ec       	ldi	r24, 0xC8	; 200
    1db2:	91 e0       	ldi	r25, 0x01	; 1
    1db4:	0e 94 40 0a 	call	0x1480	; 0x1480 <Ciego_Task_Brazos_ms>
    1db8:	80 91 b3 01 	lds	r24, 0x01B3	; 0x8001b3 <g_hcsr04+0x9>
    1dbc:	88 23       	and	r24, r24
    1dbe:	a1 f0       	breq	.+40     	; 0x1de8 <On2Ms+0xb6>
    1dc0:	80 91 0f 01 	lds	r24, 0x010F	; 0x80010f <timeout_cnt.1971>
    1dc4:	8f 5f       	subi	r24, 0xFF	; 255
    1dc6:	80 93 0f 01 	sts	0x010F, r24	; 0x80010f <timeout_cnt.1971>
    1dca:	82 31       	cpi	r24, 0x12	; 18
    1dcc:	78 f0       	brcs	.+30     	; 0x1dec <On2Ms+0xba>
    1dce:	10 92 0f 01 	sts	0x010F, r1	; 0x80010f <timeout_cnt.1971>
    1dd2:	ea ea       	ldi	r30, 0xAA	; 170
    1dd4:	f1 e0       	ldi	r31, 0x01	; 1
    1dd6:	11 86       	std	Z+9, r1	; 0x09
    1dd8:	10 86       	std	Z+8, r1	; 0x08
    1dda:	60 e0       	ldi	r22, 0x00	; 0
    1ddc:	70 e0       	ldi	r23, 0x00	; 0
    1dde:	80 e8       	ldi	r24, 0x80	; 128
    1de0:	9f eb       	ldi	r25, 0xBF	; 191
    1de2:	0e 94 92 0c 	call	0x1924	; 0x1924 <on_resultado>
    1de6:	02 c0       	rjmp	.+4      	; 0x1dec <On2Ms+0xba>
    1de8:	10 92 0f 01 	sts	0x010F, r1	; 0x80010f <timeout_cnt.1971>
    1dec:	00 91 84 00 	lds	r16, 0x0084	; 0x800084 <__TEXT_REGION_LENGTH__+0x7f8084>
    1df0:	10 91 85 00 	lds	r17, 0x0085	; 0x800085 <__TEXT_REGION_LENGTH__+0x7f8085>
    1df4:	80 91 0e 01 	lds	r24, 0x010E	; 0x80010e <servo_selector.1972>
    1df8:	81 30       	cpi	r24, 0x01	; 1
    1dfa:	a9 f0       	breq	.+42     	; 0x1e26 <On2Ms+0xf4>
    1dfc:	18 f0       	brcs	.+6      	; 0x1e04 <On2Ms+0xd2>
    1dfe:	82 30       	cpi	r24, 0x02	; 2
    1e00:	19 f1       	breq	.+70     	; 0x1e48 <On2Ms+0x116>
    1e02:	32 c0       	rjmp	.+100    	; 0x1e68 <On2Ms+0x136>
    1e04:	8b b1       	in	r24, 0x0b	; 11
    1e06:	80 68       	ori	r24, 0x80	; 128
    1e08:	8b b9       	out	0x0b, r24	; 11
    1e0a:	8a ed       	ldi	r24, 0xDA	; 218
    1e0c:	92 e0       	ldi	r25, 0x02	; 2
    1e0e:	0e 94 ac 11 	call	0x2358	; 0x2358 <SG90_GetTicks>
    1e12:	80 0f       	add	r24, r16
    1e14:	91 1f       	adc	r25, r17
    1e16:	90 93 89 00 	sts	0x0089, r25	; 0x800089 <__TEXT_REGION_LENGTH__+0x7f8089>
    1e1a:	80 93 88 00 	sts	0x0088, r24	; 0x800088 <__TEXT_REGION_LENGTH__+0x7f8088>
    1e1e:	81 e0       	ldi	r24, 0x01	; 1
    1e20:	80 93 0e 01 	sts	0x010E, r24	; 0x80010e <servo_selector.1972>
    1e24:	23 c0       	rjmp	.+70     	; 0x1e6c <On2Ms+0x13a>
    1e26:	85 b1       	in	r24, 0x05	; 5
    1e28:	80 61       	ori	r24, 0x10	; 16
    1e2a:	85 b9       	out	0x05, r24	; 5
    1e2c:	8b eb       	ldi	r24, 0xBB	; 187
    1e2e:	91 e0       	ldi	r25, 0x01	; 1
    1e30:	0e 94 ac 11 	call	0x2358	; 0x2358 <SG90_GetTicks>
    1e34:	80 0f       	add	r24, r16
    1e36:	91 1f       	adc	r25, r17
    1e38:	90 93 89 00 	sts	0x0089, r25	; 0x800089 <__TEXT_REGION_LENGTH__+0x7f8089>
    1e3c:	80 93 88 00 	sts	0x0088, r24	; 0x800088 <__TEXT_REGION_LENGTH__+0x7f8088>
    1e40:	82 e0       	ldi	r24, 0x02	; 2
    1e42:	80 93 0e 01 	sts	0x010E, r24	; 0x80010e <servo_selector.1972>
    1e46:	12 c0       	rjmp	.+36     	; 0x1e6c <On2Ms+0x13a>
    1e48:	85 b1       	in	r24, 0x05	; 5
    1e4a:	88 60       	ori	r24, 0x08	; 8
    1e4c:	85 b9       	out	0x05, r24	; 5
    1e4e:	8b e6       	ldi	r24, 0x6B	; 107
    1e50:	93 e0       	ldi	r25, 0x03	; 3
    1e52:	0e 94 ac 11 	call	0x2358	; 0x2358 <SG90_GetTicks>
    1e56:	80 0f       	add	r24, r16
    1e58:	91 1f       	adc	r25, r17
    1e5a:	90 93 89 00 	sts	0x0089, r25	; 0x800089 <__TEXT_REGION_LENGTH__+0x7f8089>
    1e5e:	80 93 88 00 	sts	0x0088, r24	; 0x800088 <__TEXT_REGION_LENGTH__+0x7f8088>
    1e62:	10 92 0e 01 	sts	0x010E, r1	; 0x80010e <servo_selector.1972>
    1e66:	02 c0       	rjmp	.+4      	; 0x1e6c <On2Ms+0x13a>
    1e68:	10 92 0e 01 	sts	0x010E, r1	; 0x80010e <servo_selector.1972>
    1e6c:	86 b3       	in	r24, 0x16	; 22
    1e6e:	82 60       	ori	r24, 0x02	; 2
    1e70:	86 bb       	out	0x16, r24	; 22
    1e72:	ef e6       	ldi	r30, 0x6F	; 111
    1e74:	f0 e0       	ldi	r31, 0x00	; 0
    1e76:	80 81       	ld	r24, Z
    1e78:	82 60       	ori	r24, 0x02	; 2
    1e7a:	80 83       	st	Z, r24
    1e7c:	0f 90       	pop	r0
    1e7e:	df 91       	pop	r29
    1e80:	cf 91       	pop	r28
    1e82:	1f 91       	pop	r17
    1e84:	0f 91       	pop	r16
    1e86:	08 95       	ret

00001e88 <initPort>:
    1e88:	84 b1       	in	r24, 0x04	; 4
    1e8a:	8a 63       	ori	r24, 0x3A	; 58
    1e8c:	84 b9       	out	0x04, r24	; 4
    1e8e:	84 b1       	in	r24, 0x04	; 4
    1e90:	8b 7f       	andi	r24, 0xFB	; 251
    1e92:	84 b9       	out	0x04, r24	; 4
    1e94:	8a b1       	in	r24, 0x0a	; 10
    1e96:	80 68       	ori	r24, 0x80	; 128
    1e98:	8a b9       	out	0x0a, r24	; 10
    1e9a:	8a b1       	in	r24, 0x0a	; 10
    1e9c:	83 7c       	andi	r24, 0xC3	; 195
    1e9e:	8a b9       	out	0x0a, r24	; 10
    1ea0:	8b b1       	in	r24, 0x0b	; 11
    1ea2:	8c 63       	ori	r24, 0x3C	; 60
    1ea4:	8b b9       	out	0x0b, r24	; 11
    1ea6:	08 95       	ret

00001ea8 <initTMR0>:
    1ea8:	82 e0       	ldi	r24, 0x02	; 2
    1eaa:	84 bd       	out	0x24, r24	; 36
    1eac:	91 e3       	ldi	r25, 0x31	; 49
    1eae:	97 bd       	out	0x27, r25	; 39
    1eb0:	80 93 6e 00 	sts	0x006E, r24	; 0x80006e <__TEXT_REGION_LENGTH__+0x7f806e>
    1eb4:	83 e0       	ldi	r24, 0x03	; 3
    1eb6:	85 bd       	out	0x25, r24	; 37
    1eb8:	08 95       	ret

00001eba <initUSART0>:
    1eba:	82 e0       	ldi	r24, 0x02	; 2
    1ebc:	80 93 c0 00 	sts	0x00C0, r24	; 0x8000c0 <__TEXT_REGION_LENGTH__+0x7f80c0>
    1ec0:	10 92 c5 00 	sts	0x00C5, r1	; 0x8000c5 <__TEXT_REGION_LENGTH__+0x7f80c5>
    1ec4:	80 e1       	ldi	r24, 0x10	; 16
    1ec6:	80 93 c4 00 	sts	0x00C4, r24	; 0x8000c4 <__TEXT_REGION_LENGTH__+0x7f80c4>
    1eca:	86 e0       	ldi	r24, 0x06	; 6
    1ecc:	80 93 c2 00 	sts	0x00C2, r24	; 0x8000c2 <__TEXT_REGION_LENGTH__+0x7f80c2>
    1ed0:	88 e9       	ldi	r24, 0x98	; 152
    1ed2:	80 93 c1 00 	sts	0x00C1, r24	; 0x8000c1 <__TEXT_REGION_LENGTH__+0x7f80c1>
    1ed6:	08 95       	ret

00001ed8 <init_hardware_hcsr04>:
    1ed8:	84 b1       	in	r24, 0x04	; 4
    1eda:	8b 7f       	andi	r24, 0xFB	; 251
    1edc:	84 b9       	out	0x04, r24	; 4
    1ede:	10 92 80 00 	sts	0x0080, r1	; 0x800080 <__TEXT_REGION_LENGTH__+0x7f8080>
    1ee2:	82 e0       	ldi	r24, 0x02	; 2
    1ee4:	80 93 81 00 	sts	0x0081, r24	; 0x800081 <__TEXT_REGION_LENGTH__+0x7f8081>
    1ee8:	e8 e6       	ldi	r30, 0x68	; 104
    1eea:	f0 e0       	ldi	r31, 0x00	; 0
    1eec:	80 81       	ld	r24, Z
    1eee:	81 60       	ori	r24, 0x01	; 1
    1ef0:	80 83       	st	Z, r24
    1ef2:	eb e6       	ldi	r30, 0x6B	; 107
    1ef4:	f0 e0       	ldi	r31, 0x00	; 0
    1ef6:	80 81       	ld	r24, Z
    1ef8:	84 60       	ori	r24, 0x04	; 4
    1efa:	80 83       	st	Z, r24
    1efc:	08 95       	ret

00001efe <main>:

int main(void) {
	cli();
    1efe:	f8 94       	cli

	// 1. InicializaciĂłn de Protocolo y Clasificador
	Protocolo_Init();
    1f00:	0e 94 2d 10 	call	0x205a	; 0x205a <Protocolo_Init>
	Clasificador_Init(&mi_clasificador, 180.0f);
    1f04:	40 e0       	ldi	r20, 0x00	; 0
    1f06:	50 e0       	ldi	r21, 0x00	; 0
    1f08:	64 e3       	ldi	r22, 0x34	; 52
    1f0a:	73 e4       	ldi	r23, 0x43	; 67
    1f0c:	80 ef       	ldi	r24, 0xF0	; 240
    1f0e:	92 e0       	ldi	r25, 0x02	; 2
    1f10:	0e 94 71 01 	call	0x2e2	; 0x2e2 <Clasificador_Init>
	Comandos_Init(&mi_clasificador); // Enlace del parser modular
    1f14:	80 ef       	ldi	r24, 0xF0	; 240
    1f16:	92 e0       	ldi	r25, 0x02	; 2
    1f18:	0e 94 25 07 	call	0xe4a	; 0xe4a <Comandos_Init>
	Ciego_Init(&mi_modo_ciego);       // <--- NUEVA INICIALIZACIĂ“N
    1f1c:	88 ec       	ldi	r24, 0xC8	; 200
    1f1e:	91 e0       	ldi	r25, 0x01	; 1
    1f20:	0e 94 de 07 	call	0xfbc	; 0xfbc <Ciego_Init>
	// 2. InicializaciĂłn de PerifĂ©ricos AVR
	initUSART0();
    1f24:	0e 94 5d 0f 	call	0x1eba	; 0x1eba <initUSART0>
	initPort();
    1f28:	0e 94 44 0f 	call	0x1e88	; 0x1e88 <initPort>
	initTMR0();
    1f2c:	0e 94 54 0f 	call	0x1ea8	; 0x1ea8 <initTMR0>
	init_hardware_hcsr04();
    1f30:	0e 94 6c 0f 	call	0x1ed8	; 0x1ed8 <init_hardware_hcsr04>
	
	// 3. InicializaciĂłn del Sensor UltrasĂłnico (CORREGIDO: Se agregĂł hal_echo)
	HCSR04_Init(&g_hcsr04, hal_trig, on_resultado);
    1f34:	42 e9       	ldi	r20, 0x92	; 146
    1f36:	5c e0       	ldi	r21, 0x0C	; 12
    1f38:	68 e8       	ldi	r22, 0x88	; 136
    1f3a:	7c e0       	ldi	r23, 0x0C	; 12
    1f3c:	8a ea       	ldi	r24, 0xAA	; 170
    1f3e:	91 e0       	ldi	r25, 0x01	; 1
    1f40:	0e 94 30 07 	call	0xe60	; 0xe60 <HCSR04_Init>
	HCSR04_TuneParams(&g_hcsr04, 12U, 0.1717f);
    1f44:	20 e2       	ldi	r18, 0x20	; 32
    1f46:	32 ed       	ldi	r19, 0xD2	; 210
    1f48:	4f e2       	ldi	r20, 0x2F	; 47
    1f4a:	5e e3       	ldi	r21, 0x3E	; 62
    1f4c:	6c e0       	ldi	r22, 0x0C	; 12
    1f4e:	70 e0       	ldi	r23, 0x00	; 0
    1f50:	8a ea       	ldi	r24, 0xAA	; 170
    1f52:	91 e0       	ldi	r25, 0x01	; 1
    1f54:	0e 94 59 07 	call	0xeb2	; 0xeb2 <HCSR04_TuneParams>
	
	// 4. InicializaciĂłn de Sensores IR
	IR_Init(&ir_s0, hal_s0, on_s0_detected, on_s0_released);
    1f58:	22 ec       	ldi	r18, 0xC2	; 194
    1f5a:	3c e0       	ldi	r19, 0x0C	; 12
    1f5c:	4c ef       	ldi	r20, 0xFC	; 252
    1f5e:	5c e0       	ldi	r21, 0x0C	; 12
    1f60:	6a e6       	ldi	r22, 0x6A	; 106
    1f62:	7c e0       	ldi	r23, 0x0C	; 12
    1f64:	8e ed       	ldi	r24, 0xDE	; 222
    1f66:	92 e0       	ldi	r25, 0x02	; 2
    1f68:	0e 94 0a 0c 	call	0x1814	; 0x1814 <IR_Init>
	IR_Init(&ir_s1, hal_s1, on_s1_detected, on_s1_released);
    1f6c:	26 e5       	ldi	r18, 0x56	; 86
    1f6e:	3d e0       	ldi	r19, 0x0D	; 13
    1f70:	4c e3       	ldi	r20, 0x3C	; 60
    1f72:	5d e0       	ldi	r21, 0x0D	; 13
    1f74:	62 e7       	ldi	r22, 0x72	; 114
    1f76:	7c e0       	ldi	r23, 0x0C	; 12
    1f78:	81 ea       	ldi	r24, 0xA1	; 161
    1f7a:	91 e0       	ldi	r25, 0x01	; 1
    1f7c:	0e 94 0a 0c 	call	0x1814	; 0x1814 <IR_Init>
	IR_Init(&ir_s2, hal_s2, on_s2_detected, on_s2_released);
    1f80:	2b e8       	ldi	r18, 0x8B	; 139
    1f82:	3d e0       	ldi	r19, 0x0D	; 13
    1f84:	40 e7       	ldi	r20, 0x70	; 112
    1f86:	5d e0       	ldi	r21, 0x0D	; 13
    1f88:	69 e7       	ldi	r22, 0x79	; 121
    1f8a:	7c e0       	ldi	r23, 0x0C	; 12
    1f8c:	8f eb       	ldi	r24, 0xBF	; 191
    1f8e:	91 e0       	ldi	r25, 0x01	; 1
    1f90:	0e 94 0a 0c 	call	0x1814	; 0x1814 <IR_Init>
	IR_Init(&ir_s3, hal_s3, on_s3_detected, on_s3_released);
    1f94:	20 ec       	ldi	r18, 0xC0	; 192
    1f96:	3d e0       	ldi	r19, 0x0D	; 13
    1f98:	45 ea       	ldi	r20, 0xA5	; 165
    1f9a:	5d e0       	ldi	r21, 0x0D	; 13
    1f9c:	61 e8       	ldi	r22, 0x81	; 129
    1f9e:	7c e0       	ldi	r23, 0x0C	; 12
    1fa0:	87 ee       	ldi	r24, 0xE7	; 231
    1fa2:	92 e0       	ldi	r25, 0x02	; 2
    1fa4:	0e 94 0a 0c 	call	0x1814	; 0x1814 <IR_Init>
	
	// Filtro digital antirrebote (6ms para todos)
	IR_TuneParams(&ir_s0, 30U);
    1fa8:	6e e1       	ldi	r22, 0x1E	; 30
    1faa:	8e ed       	ldi	r24, 0xDE	; 222
    1fac:	92 e0       	ldi	r25, 0x02	; 2
    1fae:	0e 94 21 0c 	call	0x1842	; 0x1842 <IR_TuneParams>
	IR_TuneParams(&ir_s1, 30U);
    1fb2:	6e e1       	ldi	r22, 0x1E	; 30
    1fb4:	81 ea       	ldi	r24, 0xA1	; 161
    1fb6:	91 e0       	ldi	r25, 0x01	; 1
    1fb8:	0e 94 21 0c 	call	0x1842	; 0x1842 <IR_TuneParams>
	IR_TuneParams(&ir_s2, 30U);
    1fbc:	6e e1       	ldi	r22, 0x1E	; 30
    1fbe:	8f eb       	ldi	r24, 0xBF	; 191
    1fc0:	91 e0       	ldi	r25, 0x01	; 1
    1fc2:	0e 94 21 0c 	call	0x1842	; 0x1842 <IR_TuneParams>
	IR_TuneParams(&ir_s3, 30U);
    1fc6:	6e e1       	ldi	r22, 0x1E	; 30
    1fc8:	87 ee       	ldi	r24, 0xE7	; 231
    1fca:	92 e0       	ldi	r25, 0x02	; 2
    1fcc:	0e 94 21 0c 	call	0x1842	; 0x1842 <IR_TuneParams>
	
	// 5. InicializaciĂłn de estructuras de Servos
	SG90_Init(&servo1, hal_servo1);
    1fd0:	6c e4       	ldi	r22, 0x4C	; 76
    1fd2:	7c e0       	ldi	r23, 0x0C	; 12
    1fd4:	8a ed       	ldi	r24, 0xDA	; 218
    1fd6:	92 e0       	ldi	r25, 0x02	; 2
    1fd8:	0e 94 9a 11 	call	0x2334	; 0x2334 <SG90_Init>
	SG90_Init(&servo2, hal_servo2);
    1fdc:	66 e5       	ldi	r22, 0x56	; 86
    1fde:	7c e0       	ldi	r23, 0x0C	; 12
    1fe0:	8b e6       	ldi	r24, 0x6B	; 107
    1fe2:	93 e0       	ldi	r25, 0x03	; 3
    1fe4:	0e 94 9a 11 	call	0x2334	; 0x2334 <SG90_Init>
	SG90_Init(&servo3, hal_servo3);
    1fe8:	60 e6       	ldi	r22, 0x60	; 96
    1fea:	7c e0       	ldi	r23, 0x0C	; 12
    1fec:	8b eb       	ldi	r24, 0xBB	; 187
    1fee:	91 e0       	ldi	r25, 0x01	; 1
    1ff0:	0e 94 9a 11 	call	0x2334	; 0x2334 <SG90_Init>
	
	DDRC |= (1 << PC0);   // Configura el pin A0 (PC0) como salida
    1ff4:	87 b1       	in	r24, 0x07	; 7
    1ff6:	81 60       	ori	r24, 0x01	; 1
    1ff8:	87 b9       	out	0x07, r24	; 7
	PORTC |= (1 << PC0);  // Lo inicializa en ALTO (Motor/Sistema apagado)
    1ffa:	88 b1       	in	r24, 0x08	; 8
    1ffc:	81 60       	ori	r24, 0x01	; 1
    1ffe:	88 b9       	out	0x08, r24	; 8
	
	sei(); // HabilitaciĂłn global de interrupciones
    2000:	78 94       	sei

	time100ms = 100;
    2002:	84 e6       	ldi	r24, 0x64	; 100
    2004:	80 93 18 01 	sts	0x0118, r24	; 0x800118 <time100ms>

	while (1) {
		if (GPIOR0 & _BV(GPIOR00)) {
    2008:	f0 99       	sbic	0x1e, 0	; 30
			On2Ms();
    200a:	0e 94 99 0e 	call	0x1d32	; 0x1d32 <On2Ms>
		}
		
		if (rx.rBuf.ir != rx.rBuf.iw) {
    200e:	ef e6       	ldi	r30, 0x6F	; 111
    2010:	f3 e0       	ldi	r31, 0x03	; 3
    2012:	93 81       	ldd	r25, Z+3	; 0x03
    2014:	82 81       	ldd	r24, Z+2	; 0x02
    2016:	98 13       	cpse	r25, r24
			Decode();
    2018:	0e 94 47 10 	call	0x208e	; 0x208e <Decode>
		}
		
		HCSR04_EventHandler(&g_hcsr04); // Procesador asĂ­ncrono del eco
    201c:	8a ea       	ldi	r24, 0xAA	; 170
    201e:	91 e0       	ldi	r25, 0x01	; 1
    2020:	0e 94 b7 07 	call	0xf6e	; 0xf6e <HCSR04_EventHandler>
		
		// Gestor de transmisiĂłn serial por hardware
		if (tx.rBuf.iw != tx.rBuf.ir) {
    2024:	e8 ef       	ldi	r30, 0xF8	; 248
    2026:	f3 e0       	ldi	r31, 0x03	; 3
    2028:	92 81       	ldd	r25, Z+2	; 0x02
    202a:	83 81       	ldd	r24, Z+3	; 0x03
    202c:	98 17       	cp	r25, r24
    202e:	61 f3       	breq	.-40     	; 0x2008 <main+0x10a>
			if (UCSR0A & _BV(UDRE0)) {
    2030:	80 91 c0 00 	lds	r24, 0x00C0	; 0x8000c0 <__TEXT_REGION_LENGTH__+0x7f80c0>
    2034:	85 ff       	sbrs	r24, 5
    2036:	e8 cf       	rjmp	.-48     	; 0x2008 <main+0x10a>
				UDR0 = tx.rBuf.buf[tx.rBuf.ir++];
    2038:	a0 81       	ld	r26, Z
    203a:	b1 81       	ldd	r27, Z+1	; 0x01
    203c:	83 81       	ldd	r24, Z+3	; 0x03
    203e:	91 e0       	ldi	r25, 0x01	; 1
    2040:	98 0f       	add	r25, r24
    2042:	93 83       	std	Z+3, r25	; 0x03
    2044:	a8 0f       	add	r26, r24
    2046:	b1 1d       	adc	r27, r1
    2048:	8c 91       	ld	r24, X
    204a:	80 93 c6 00 	sts	0x00C6, r24	; 0x8000c6 <__TEXT_REGION_LENGTH__+0x7f80c6>
				tx.rBuf.ir &= (tx.rBuf.size - 1);
    204e:	93 81       	ldd	r25, Z+3	; 0x03
    2050:	84 81       	ldd	r24, Z+4	; 0x04
    2052:	81 50       	subi	r24, 0x01	; 1
    2054:	89 23       	and	r24, r25
    2056:	83 83       	std	Z+3, r24	; 0x03
    2058:	d7 cf       	rjmp	.-82     	; 0x2008 <main+0x10a>

0000205a <Protocolo_Init>:
_sTx tx;

static CmdParserCallback _cmdParser = 0;

void Protocolo_Init(void) {
	rx.rBuf.buf = bufRX;
    205a:	ef e6       	ldi	r30, 0x6F	; 111
    205c:	f3 e0       	ldi	r31, 0x03	; 3
    205e:	8e ef       	ldi	r24, 0xFE	; 254
    2060:	93 e0       	ldi	r25, 0x03	; 3
    2062:	91 83       	std	Z+1, r25	; 0x01
    2064:	80 83       	st	Z, r24
	rx.rBuf.size = BUFRXSIZE;
    2066:	80 e8       	ldi	r24, 0x80	; 128
    2068:	84 83       	std	Z+4, r24	; 0x04
	rx.rBuf.ir = 0;
    206a:	13 82       	std	Z+3, r1	; 0x03
	rx.rBuf.iw = 0;
    206c:	12 82       	std	Z+2, r1	; 0x02
	rx.hdrState = 0;
    206e:	16 82       	std	Z+6, r1	; 0x06
	tx.rBuf.buf = bufTX;
    2070:	e8 ef       	ldi	r30, 0xF8	; 248
    2072:	f3 e0       	ldi	r31, 0x03	; 3
    2074:	28 e7       	ldi	r18, 0x78	; 120
    2076:	33 e0       	ldi	r19, 0x03	; 3
    2078:	31 83       	std	Z+1, r19	; 0x01
    207a:	20 83       	st	Z, r18
	tx.rBuf.size = BUFTXSIZE;
    207c:	84 83       	std	Z+4, r24	; 0x04
	tx.rBuf.ir = 0;
    207e:	13 82       	std	Z+3, r1	; 0x03
	tx.rBuf.iw = 0;
    2080:	12 82       	std	Z+2, r1	; 0x02
    2082:	08 95       	ret

00002084 <Protocolo_SetCmdParser>:
}

void Protocolo_SetCmdParser(CmdParserCallback cb) {
	_cmdParser = cb;
    2084:	90 93 1a 01 	sts	0x011A, r25	; 0x80011a <_cmdParser+0x1>
    2088:	80 93 19 01 	sts	0x0119, r24	; 0x800119 <_cmdParser>
    208c:	08 95       	ret

0000208e <Decode>:
}

void Decode(void) {
	while (rx.rBuf.ir != rx.rBuf.iw) {
    208e:	8d c0       	rjmp	.+282    	; 0x21aa <Decode+0x11c>
		uint8_t b = rx.rBuf.buf[rx.rBuf.ir++];
    2090:	ef e6       	ldi	r30, 0x6F	; 111
    2092:	f3 e0       	ldi	r31, 0x03	; 3
    2094:	a0 81       	ld	r26, Z
    2096:	b1 81       	ldd	r27, Z+1	; 0x01
    2098:	83 81       	ldd	r24, Z+3	; 0x03
    209a:	91 e0       	ldi	r25, 0x01	; 1
    209c:	98 0f       	add	r25, r24
    209e:	93 83       	std	Z+3, r25	; 0x03
    20a0:	a8 0f       	add	r26, r24
    20a2:	b1 1d       	adc	r27, r1
    20a4:	2c 91       	ld	r18, X
		rx.rBuf.ir &= (rx.rBuf.size - 1);
    20a6:	93 81       	ldd	r25, Z+3	; 0x03
    20a8:	84 81       	ldd	r24, Z+4	; 0x04
    20aa:	81 50       	subi	r24, 0x01	; 1
    20ac:	89 23       	and	r24, r25
    20ae:	83 83       	std	Z+3, r24	; 0x03

		switch (rx.hdrState) {
    20b0:	e6 81       	ldd	r30, Z+6	; 0x06
    20b2:	8e 2f       	mov	r24, r30
    20b4:	90 e0       	ldi	r25, 0x00	; 0
    20b6:	87 30       	cpi	r24, 0x07	; 7
    20b8:	91 05       	cpc	r25, r1
    20ba:	08 f0       	brcs	.+2      	; 0x20be <Decode+0x30>
    20bc:	76 c0       	rjmp	.+236    	; 0x21aa <Decode+0x11c>
    20be:	fc 01       	movw	r30, r24
    20c0:	e8 5b       	subi	r30, 0xB8	; 184
    20c2:	ff 4f       	sbci	r31, 0xFF	; 255
    20c4:	0c 94 5e 15 	jmp	0x2abc	; 0x2abc <__tablejump2__>
			case 0: if (b == 'U') { rx.hdrState = 1; rx.cks = b; } break;
    20c8:	25 35       	cpi	r18, 0x55	; 85
    20ca:	09 f0       	breq	.+2      	; 0x20ce <Decode+0x40>
    20cc:	6e c0       	rjmp	.+220    	; 0x21aa <Decode+0x11c>
    20ce:	ef e6       	ldi	r30, 0x6F	; 111
    20d0:	f3 e0       	ldi	r31, 0x03	; 3
    20d2:	81 e0       	ldi	r24, 0x01	; 1
    20d4:	86 83       	std	Z+6, r24	; 0x06
    20d6:	20 87       	std	Z+8, r18	; 0x08
    20d8:	68 c0       	rjmp	.+208    	; 0x21aa <Decode+0x11c>
			case 1: if (b == 'N') { rx.hdrState = 2; rx.cks ^= b; } else rx.hdrState = 0; break;
    20da:	2e 34       	cpi	r18, 0x4E	; 78
    20dc:	41 f4       	brne	.+16     	; 0x20ee <Decode+0x60>
    20de:	ef e6       	ldi	r30, 0x6F	; 111
    20e0:	f3 e0       	ldi	r31, 0x03	; 3
    20e2:	82 e0       	ldi	r24, 0x02	; 2
    20e4:	86 83       	std	Z+6, r24	; 0x06
    20e6:	80 85       	ldd	r24, Z+8	; 0x08
    20e8:	28 27       	eor	r18, r24
    20ea:	20 87       	std	Z+8, r18	; 0x08
    20ec:	5e c0       	rjmp	.+188    	; 0x21aa <Decode+0x11c>
    20ee:	10 92 75 03 	sts	0x0375, r1	; 0x800375 <rx+0x6>
    20f2:	5b c0       	rjmp	.+182    	; 0x21aa <Decode+0x11c>
			case 2: if (b == 'E') { rx.hdrState = 3; rx.cks ^= b; } else rx.hdrState = 0; break;
    20f4:	25 34       	cpi	r18, 0x45	; 69
    20f6:	41 f4       	brne	.+16     	; 0x2108 <Decode+0x7a>
    20f8:	ef e6       	ldi	r30, 0x6F	; 111
    20fa:	f3 e0       	ldi	r31, 0x03	; 3
    20fc:	83 e0       	ldi	r24, 0x03	; 3
    20fe:	86 83       	std	Z+6, r24	; 0x06
    2100:	80 85       	ldd	r24, Z+8	; 0x08
    2102:	28 27       	eor	r18, r24
    2104:	20 87       	std	Z+8, r18	; 0x08
    2106:	51 c0       	rjmp	.+162    	; 0x21aa <Decode+0x11c>
    2108:	10 92 75 03 	sts	0x0375, r1	; 0x800375 <rx+0x6>
    210c:	4e c0       	rjmp	.+156    	; 0x21aa <Decode+0x11c>
			case 3: if (b == 'R') { rx.hdrState = 4; rx.cks ^= b; } else rx.hdrState = 0; break;
    210e:	22 35       	cpi	r18, 0x52	; 82
    2110:	41 f4       	brne	.+16     	; 0x2122 <Decode+0x94>
    2112:	ef e6       	ldi	r30, 0x6F	; 111
    2114:	f3 e0       	ldi	r31, 0x03	; 3
    2116:	84 e0       	ldi	r24, 0x04	; 4
    2118:	86 83       	std	Z+6, r24	; 0x06
    211a:	80 85       	ldd	r24, Z+8	; 0x08
    211c:	28 27       	eor	r18, r24
    211e:	20 87       	std	Z+8, r18	; 0x08
    2120:	44 c0       	rjmp	.+136    	; 0x21aa <Decode+0x11c>
    2122:	10 92 75 03 	sts	0x0375, r1	; 0x800375 <rx+0x6>
    2126:	41 c0       	rjmp	.+130    	; 0x21aa <Decode+0x11c>
			case 4:
			rx.nBytes = b;
    2128:	ef e6       	ldi	r30, 0x6F	; 111
    212a:	f3 e0       	ldi	r31, 0x03	; 3
    212c:	27 83       	std	Z+7, r18	; 0x07
			rx.cks ^= b;
    212e:	80 85       	ldd	r24, Z+8	; 0x08
    2130:	28 27       	eor	r18, r24
    2132:	20 87       	std	Z+8, r18	; 0x08
			rx.hdrState = 5;
    2134:	85 e0       	ldi	r24, 0x05	; 5
    2136:	86 83       	std	Z+6, r24	; 0x06
			pIdx = 0;
    2138:	10 92 1b 01 	sts	0x011B, r1	; 0x80011b <pIdx>
			break;
    213c:	36 c0       	rjmp	.+108    	; 0x21aa <Decode+0x11c>
			case 5:
			if (b == TOKEN_VAL) { rx.cks ^= b; rx.hdrState = 6; }
    213e:	2a 33       	cpi	r18, 0x3A	; 58
    2140:	41 f4       	brne	.+16     	; 0x2152 <Decode+0xc4>
    2142:	ef e6       	ldi	r30, 0x6F	; 111
    2144:	f3 e0       	ldi	r31, 0x03	; 3
    2146:	80 85       	ldd	r24, Z+8	; 0x08
    2148:	28 27       	eor	r18, r24
    214a:	20 87       	std	Z+8, r18	; 0x08
    214c:	86 e0       	ldi	r24, 0x06	; 6
    214e:	86 83       	std	Z+6, r24	; 0x06
    2150:	2c c0       	rjmp	.+88     	; 0x21aa <Decode+0x11c>
			else rx.hdrState = 0;
    2152:	10 92 75 03 	sts	0x0375, r1	; 0x800375 <rx+0x6>
    2156:	29 c0       	rjmp	.+82     	; 0x21aa <Decode+0x11c>
			break;
			case 6:
			rx.cks ^= b;
    2158:	ef e6       	ldi	r30, 0x6F	; 111
    215a:	f3 e0       	ldi	r31, 0x03	; 3
    215c:	90 85       	ldd	r25, Z+8	; 0x08
    215e:	92 27       	eor	r25, r18
    2160:	90 87       	std	Z+8, r25	; 0x08
			if (rx.nBytes > 1) payloadBuffer[pIdx++] = b;
    2162:	87 81       	ldd	r24, Z+7	; 0x07
    2164:	82 30       	cpi	r24, 0x02	; 2
    2166:	50 f0       	brcs	.+20     	; 0x217c <Decode+0xee>
    2168:	e0 91 1b 01 	lds	r30, 0x011B	; 0x80011b <pIdx>
    216c:	31 e0       	ldi	r19, 0x01	; 1
    216e:	3e 0f       	add	r19, r30
    2170:	30 93 1b 01 	sts	0x011B, r19	; 0x80011b <pIdx>
    2174:	f0 e0       	ldi	r31, 0x00	; 0
    2176:	e4 5e       	subi	r30, 0xE4	; 228
    2178:	fe 4f       	sbci	r31, 0xFE	; 254
    217a:	20 83       	st	Z, r18
			rx.nBytes--;
    217c:	81 50       	subi	r24, 0x01	; 1
    217e:	80 93 76 03 	sts	0x0376, r24	; 0x800376 <rx+0x7>
			if (rx.nBytes == 0) {
    2182:	81 11       	cpse	r24, r1
    2184:	12 c0       	rjmp	.+36     	; 0x21aa <Decode+0x11c>
				if (rx.cks == 0 && _cmdParser)
    2186:	91 11       	cpse	r25, r1
    2188:	0e c0       	rjmp	.+28     	; 0x21a6 <Decode+0x118>
    218a:	e0 91 19 01 	lds	r30, 0x0119	; 0x800119 <_cmdParser>
    218e:	f0 91 1a 01 	lds	r31, 0x011A	; 0x80011a <_cmdParser+0x1>
    2192:	30 97       	sbiw	r30, 0x00	; 0
    2194:	41 f0       	breq	.+16     	; 0x21a6 <Decode+0x118>
				_cmdParser(payloadBuffer[0], &payloadBuffer[1], pIdx - 1);
    2196:	40 91 1b 01 	lds	r20, 0x011B	; 0x80011b <pIdx>
    219a:	41 50       	subi	r20, 0x01	; 1
    219c:	6d e1       	ldi	r22, 0x1D	; 29
    219e:	71 e0       	ldi	r23, 0x01	; 1
    21a0:	80 91 1c 01 	lds	r24, 0x011C	; 0x80011c <payloadBuffer>
    21a4:	09 95       	icall
				rx.hdrState = 0;
    21a6:	10 92 75 03 	sts	0x0375, r1	; 0x800375 <rx+0x6>
void Protocolo_SetCmdParser(CmdParserCallback cb) {
	_cmdParser = cb;
}

void Decode(void) {
	while (rx.rBuf.ir != rx.rBuf.iw) {
    21aa:	ef e6       	ldi	r30, 0x6F	; 111
    21ac:	f3 e0       	ldi	r31, 0x03	; 3
    21ae:	93 81       	ldd	r25, Z+3	; 0x03
    21b0:	82 81       	ldd	r24, Z+2	; 0x02
    21b2:	98 13       	cpse	r25, r24
    21b4:	6d cf       	rjmp	.-294    	; 0x2090 <Decode+0x2>
				rx.hdrState = 0;
			}
			break;
		}
	}
}
    21b6:	08 95       	ret

000021b8 <Encode>:

void Encode(uint8_t cmd, uint8_t* payload, uint8_t n) {
    21b8:	cf 93       	push	r28
    21ba:	df 93       	push	r29
	uint8_t checksum = 0;
	uint8_t length = 1 + n + 1;
    21bc:	52 e0       	ldi	r21, 0x02	; 2
    21be:	54 0f       	add	r21, r20

	tx.rBuf.buf[tx.rBuf.iw++] = 'U'; tx.rBuf.iw &= (tx.rBuf.size-1); checksum = 'U';
    21c0:	e8 ef       	ldi	r30, 0xF8	; 248
    21c2:	f3 e0       	ldi	r31, 0x03	; 3
    21c4:	a0 81       	ld	r26, Z
    21c6:	b1 81       	ldd	r27, Z+1	; 0x01
    21c8:	92 81       	ldd	r25, Z+2	; 0x02
    21ca:	21 e0       	ldi	r18, 0x01	; 1
    21cc:	29 0f       	add	r18, r25
    21ce:	22 83       	std	Z+2, r18	; 0x02
    21d0:	a9 0f       	add	r26, r25
    21d2:	b1 1d       	adc	r27, r1
    21d4:	95 e5       	ldi	r25, 0x55	; 85
    21d6:	9c 93       	st	X, r25
    21d8:	22 81       	ldd	r18, Z+2	; 0x02
    21da:	94 81       	ldd	r25, Z+4	; 0x04
    21dc:	91 50       	subi	r25, 0x01	; 1
    21de:	92 23       	and	r25, r18
    21e0:	92 83       	std	Z+2, r25	; 0x02
	tx.rBuf.buf[tx.rBuf.iw++] = 'N'; tx.rBuf.iw &= (tx.rBuf.size-1); checksum ^= 'N';
    21e2:	a0 81       	ld	r26, Z
    21e4:	b1 81       	ldd	r27, Z+1	; 0x01
    21e6:	92 81       	ldd	r25, Z+2	; 0x02
    21e8:	21 e0       	ldi	r18, 0x01	; 1
    21ea:	29 0f       	add	r18, r25
    21ec:	22 83       	std	Z+2, r18	; 0x02
    21ee:	a9 0f       	add	r26, r25
    21f0:	b1 1d       	adc	r27, r1
    21f2:	9e e4       	ldi	r25, 0x4E	; 78
    21f4:	9c 93       	st	X, r25
    21f6:	22 81       	ldd	r18, Z+2	; 0x02
    21f8:	94 81       	ldd	r25, Z+4	; 0x04
    21fa:	91 50       	subi	r25, 0x01	; 1
    21fc:	92 23       	and	r25, r18
    21fe:	92 83       	std	Z+2, r25	; 0x02
	tx.rBuf.buf[tx.rBuf.iw++] = 'E'; tx.rBuf.iw &= (tx.rBuf.size-1); checksum ^= 'E';
    2200:	a0 81       	ld	r26, Z
    2202:	b1 81       	ldd	r27, Z+1	; 0x01
    2204:	92 81       	ldd	r25, Z+2	; 0x02
    2206:	21 e0       	ldi	r18, 0x01	; 1
    2208:	29 0f       	add	r18, r25
    220a:	22 83       	std	Z+2, r18	; 0x02
    220c:	a9 0f       	add	r26, r25
    220e:	b1 1d       	adc	r27, r1
    2210:	95 e4       	ldi	r25, 0x45	; 69
    2212:	9c 93       	st	X, r25
    2214:	22 81       	ldd	r18, Z+2	; 0x02
    2216:	94 81       	ldd	r25, Z+4	; 0x04
    2218:	91 50       	subi	r25, 0x01	; 1
    221a:	92 23       	and	r25, r18
    221c:	92 83       	std	Z+2, r25	; 0x02
	tx.rBuf.buf[tx.rBuf.iw++] = 'R'; tx.rBuf.iw &= (tx.rBuf.size-1); checksum ^= 'R';
    221e:	a0 81       	ld	r26, Z
    2220:	b1 81       	ldd	r27, Z+1	; 0x01
    2222:	92 81       	ldd	r25, Z+2	; 0x02
    2224:	21 e0       	ldi	r18, 0x01	; 1
    2226:	29 0f       	add	r18, r25
    2228:	22 83       	std	Z+2, r18	; 0x02
    222a:	a9 0f       	add	r26, r25
    222c:	b1 1d       	adc	r27, r1
    222e:	92 e5       	ldi	r25, 0x52	; 82
    2230:	9c 93       	st	X, r25
    2232:	32 81       	ldd	r19, Z+2	; 0x02
    2234:	24 81       	ldd	r18, Z+4	; 0x04
    2236:	21 50       	subi	r18, 0x01	; 1
    2238:	23 23       	and	r18, r19
    223a:	22 83       	std	Z+2, r18	; 0x02
	tx.rBuf.buf[tx.rBuf.iw++] = length; tx.rBuf.iw &= (tx.rBuf.size-1); checksum ^= length;
    223c:	a0 81       	ld	r26, Z
    223e:	b1 81       	ldd	r27, Z+1	; 0x01
    2240:	92 81       	ldd	r25, Z+2	; 0x02
    2242:	21 e0       	ldi	r18, 0x01	; 1
    2244:	29 0f       	add	r18, r25
    2246:	22 83       	std	Z+2, r18	; 0x02
    2248:	a9 0f       	add	r26, r25
    224a:	b1 1d       	adc	r27, r1
    224c:	5c 93       	st	X, r21
    224e:	32 81       	ldd	r19, Z+2	; 0x02
    2250:	24 81       	ldd	r18, Z+4	; 0x04
    2252:	21 50       	subi	r18, 0x01	; 1
    2254:	23 23       	and	r18, r19
    2256:	22 83       	std	Z+2, r18	; 0x02
	tx.rBuf.buf[tx.rBuf.iw++] = ':';    tx.rBuf.iw &= (tx.rBuf.size-1); checksum ^= ':';
    2258:	a0 81       	ld	r26, Z
    225a:	b1 81       	ldd	r27, Z+1	; 0x01
    225c:	92 81       	ldd	r25, Z+2	; 0x02
    225e:	21 e0       	ldi	r18, 0x01	; 1
    2260:	29 0f       	add	r18, r25
    2262:	22 83       	std	Z+2, r18	; 0x02
    2264:	a9 0f       	add	r26, r25
    2266:	b1 1d       	adc	r27, r1
    2268:	9a e3       	ldi	r25, 0x3A	; 58
    226a:	9c 93       	st	X, r25
    226c:	32 81       	ldd	r19, Z+2	; 0x02
    226e:	24 81       	ldd	r18, Z+4	; 0x04
    2270:	21 50       	subi	r18, 0x01	; 1
    2272:	23 23       	and	r18, r19
    2274:	22 83       	std	Z+2, r18	; 0x02
    2276:	96 e3       	ldi	r25, 0x36	; 54
    2278:	95 27       	eor	r25, r21
	tx.rBuf.buf[tx.rBuf.iw++] = cmd;    tx.rBuf.iw &= (tx.rBuf.size-1); checksum ^= cmd;
    227a:	a0 81       	ld	r26, Z
    227c:	b1 81       	ldd	r27, Z+1	; 0x01
    227e:	22 81       	ldd	r18, Z+2	; 0x02
    2280:	31 e0       	ldi	r19, 0x01	; 1
    2282:	32 0f       	add	r19, r18
    2284:	32 83       	std	Z+2, r19	; 0x02
    2286:	a2 0f       	add	r26, r18
    2288:	b1 1d       	adc	r27, r1
    228a:	8c 93       	st	X, r24
    228c:	32 81       	ldd	r19, Z+2	; 0x02
    228e:	24 81       	ldd	r18, Z+4	; 0x04
    2290:	21 50       	subi	r18, 0x01	; 1
    2292:	23 23       	and	r18, r19
    2294:	22 83       	std	Z+2, r18	; 0x02
    2296:	89 27       	eor	r24, r25

	for (uint8_t i = 0; i < n; i++) {
    2298:	90 e0       	ldi	r25, 0x00	; 0
    229a:	17 c0       	rjmp	.+46     	; 0x22ca <Encode+0x112>
		tx.rBuf.buf[tx.rBuf.iw++] = payload[i];
    229c:	e8 ef       	ldi	r30, 0xF8	; 248
    229e:	f3 e0       	ldi	r31, 0x03	; 3
    22a0:	a0 81       	ld	r26, Z
    22a2:	b1 81       	ldd	r27, Z+1	; 0x01
    22a4:	22 81       	ldd	r18, Z+2	; 0x02
    22a6:	31 e0       	ldi	r19, 0x01	; 1
    22a8:	32 0f       	add	r19, r18
    22aa:	32 83       	std	Z+2, r19	; 0x02
    22ac:	a2 0f       	add	r26, r18
    22ae:	b1 1d       	adc	r27, r1
    22b0:	eb 01       	movw	r28, r22
    22b2:	c9 0f       	add	r28, r25
    22b4:	d1 1d       	adc	r29, r1
    22b6:	28 81       	ld	r18, Y
    22b8:	2c 93       	st	X, r18
		tx.rBuf.iw &= (tx.rBuf.size-1);
    22ba:	32 81       	ldd	r19, Z+2	; 0x02
    22bc:	24 81       	ldd	r18, Z+4	; 0x04
    22be:	21 50       	subi	r18, 0x01	; 1
    22c0:	23 23       	and	r18, r19
    22c2:	22 83       	std	Z+2, r18	; 0x02
		checksum ^= payload[i];
    22c4:	28 81       	ld	r18, Y
    22c6:	82 27       	eor	r24, r18
	tx.rBuf.buf[tx.rBuf.iw++] = 'R'; tx.rBuf.iw &= (tx.rBuf.size-1); checksum ^= 'R';
	tx.rBuf.buf[tx.rBuf.iw++] = length; tx.rBuf.iw &= (tx.rBuf.size-1); checksum ^= length;
	tx.rBuf.buf[tx.rBuf.iw++] = ':';    tx.rBuf.iw &= (tx.rBuf.size-1); checksum ^= ':';
	tx.rBuf.buf[tx.rBuf.iw++] = cmd;    tx.rBuf.iw &= (tx.rBuf.size-1); checksum ^= cmd;

	for (uint8_t i = 0; i < n; i++) {
    22c8:	9f 5f       	subi	r25, 0xFF	; 255
    22ca:	94 17       	cp	r25, r20
    22cc:	38 f3       	brcs	.-50     	; 0x229c <Encode+0xe4>
		tx.rBuf.buf[tx.rBuf.iw++] = payload[i];
		tx.rBuf.iw &= (tx.rBuf.size-1);
		checksum ^= payload[i];
	}

	tx.rBuf.buf[tx.rBuf.iw++] = checksum;
    22ce:	e8 ef       	ldi	r30, 0xF8	; 248
    22d0:	f3 e0       	ldi	r31, 0x03	; 3
    22d2:	a0 81       	ld	r26, Z
    22d4:	b1 81       	ldd	r27, Z+1	; 0x01
    22d6:	92 81       	ldd	r25, Z+2	; 0x02
    22d8:	21 e0       	ldi	r18, 0x01	; 1
    22da:	29 0f       	add	r18, r25
    22dc:	22 83       	std	Z+2, r18	; 0x02
    22de:	a9 0f       	add	r26, r25
    22e0:	b1 1d       	adc	r27, r1
    22e2:	8c 93       	st	X, r24
	tx.rBuf.iw &= (tx.rBuf.size-1);
    22e4:	92 81       	ldd	r25, Z+2	; 0x02
    22e6:	84 81       	ldd	r24, Z+4	; 0x04
    22e8:	81 50       	subi	r24, 0x01	; 1
    22ea:	89 23       	and	r24, r25
    22ec:	82 83       	std	Z+2, r24	; 0x02
    22ee:	df 91       	pop	r29
    22f0:	cf 91       	pop	r28
    22f2:	08 95       	ret

000022f4 <SG90_SetAngle>:
	dev->set_pin = set_pin;
	if (dev->set_pin) dev->set_pin(0);
	SG90_SetAngle(dev, 90); // Posición neutra inicial de seguridad
}

void SG90_SetAngle(SG90_t *dev, uint8_t angle_deg) {
    22f4:	cf 93       	push	r28
    22f6:	df 93       	push	r29
    22f8:	ec 01       	movw	r28, r24
	if (angle_deg > 180U) angle_deg = 180U;
    22fa:	65 3b       	cpi	r22, 0xB5	; 181
    22fc:	08 f0       	brcs	.+2      	; 0x2300 <SG90_SetAngle+0xc>
    22fe:	64 eb       	ldi	r22, 0xB4	; 180
	
	// Mapeo lineal entre 1000us (0°) y 2000us (180°)
	uint32_t pulse_us = SG90_PULSE_MIN_US + (((uint32_t)angle_deg * (SG90_PULSE_MAX_US - SG90_PULSE_MIN_US)) / 180U);
    2300:	26 2f       	mov	r18, r22
    2302:	30 e0       	ldi	r19, 0x00	; 0
    2304:	ac e6       	ldi	r26, 0x6C	; 108
    2306:	b7 e0       	ldi	r27, 0x07	; 7
    2308:	0e 94 64 15 	call	0x2ac8	; 0x2ac8 <__umulhisi3>
    230c:	24 eb       	ldi	r18, 0xB4	; 180
    230e:	30 e0       	ldi	r19, 0x00	; 0
    2310:	40 e0       	ldi	r20, 0x00	; 0
    2312:	50 e0       	ldi	r21, 0x00	; 0
    2314:	0e 94 3c 15 	call	0x2a78	; 0x2a78 <__udivmodsi4>
    2318:	da 01       	movw	r26, r20
    231a:	c9 01       	movw	r24, r18
    231c:	8c 50       	subi	r24, 0x0C	; 12
    231e:	9e 4f       	sbci	r25, 0xFE	; 254
    2320:	af 4f       	sbci	r26, 0xFF	; 255
    2322:	bf 4f       	sbci	r27, 0xFF	; 255
	
	// Conversión a ticks de hardware (Timer 1 con prescaler 8 -> 1 us = 2 ticks)
	dev->pulse_ticks = (uint16_t)(pulse_us * 2U);
    2324:	9c 01       	movw	r18, r24
    2326:	22 0f       	add	r18, r18
    2328:	33 1f       	adc	r19, r19
    232a:	3b 83       	std	Y+3, r19	; 0x03
    232c:	2a 83       	std	Y+2, r18	; 0x02
}
    232e:	df 91       	pop	r29
    2330:	cf 91       	pop	r28
    2332:	08 95       	ret

00002334 <SG90_Init>:
#include "sg90.h"

void SG90_Init(SG90_t *dev, sg90_pin_write_cb_t set_pin) {
    2334:	cf 93       	push	r28
    2336:	df 93       	push	r29
    2338:	ec 01       	movw	r28, r24
	dev->set_pin = set_pin;
    233a:	79 83       	std	Y+1, r23	; 0x01
    233c:	68 83       	st	Y, r22
	if (dev->set_pin) dev->set_pin(0);
    233e:	61 15       	cp	r22, r1
    2340:	71 05       	cpc	r23, r1
    2342:	19 f0       	breq	.+6      	; 0x234a <SG90_Init+0x16>
    2344:	80 e0       	ldi	r24, 0x00	; 0
    2346:	fb 01       	movw	r30, r22
    2348:	09 95       	icall
	SG90_SetAngle(dev, 90); // Posición neutra inicial de seguridad
    234a:	6a e5       	ldi	r22, 0x5A	; 90
    234c:	ce 01       	movw	r24, r28
    234e:	0e 94 7a 11 	call	0x22f4	; 0x22f4 <SG90_SetAngle>
}
    2352:	df 91       	pop	r29
    2354:	cf 91       	pop	r28
    2356:	08 95       	ret

00002358 <SG90_GetTicks>:
	dev->pulse_ticks = (uint16_t)(pulse_us * 2U);
}

uint16_t SG90_GetTicks(const SG90_t *dev) {
	return dev->pulse_ticks;
    2358:	fc 01       	movw	r30, r24
    235a:	82 81       	ldd	r24, Z+2	; 0x02
    235c:	93 81       	ldd	r25, Z+3	; 0x03
    235e:	08 95       	ret

00002360 <Tracker_EnviarHMI>:
	for(uint8_t i=0; i<TRACKER_MAX_CAJAS_EN_CINTA; i++) {
		g_cajas[i].activa = 0;
	}
}

static void Tracker_EnviarHMI(uint8_t id, uint8_t tipo, uint8_t zona) {
    2360:	cf 93       	push	r28
    2362:	df 93       	push	r29
    2364:	00 d0       	rcall	.+0      	; 0x2366 <Tracker_EnviarHMI+0x6>
    2366:	1f 92       	push	r1
    2368:	cd b7       	in	r28, 0x3d	; 61
    236a:	de b7       	in	r29, 0x3e	; 62
	uint8_t payload[3];
	payload[0] = id;
    236c:	89 83       	std	Y+1, r24	; 0x01
	payload[1] = tipo;
    236e:	6a 83       	std	Y+2, r22	; 0x02
	payload[2] = zona;
    2370:	4b 83       	std	Y+3, r20	; 0x03
	Encode(CMD_STATUS_CINTA, payload, 3U);
    2372:	43 e0       	ldi	r20, 0x03	; 3
    2374:	be 01       	movw	r22, r28
    2376:	6f 5f       	subi	r22, 0xFF	; 255
    2378:	7f 4f       	sbci	r23, 0xFF	; 255
    237a:	8d e5       	ldi	r24, 0x5D	; 93
    237c:	0e 94 dc 10 	call	0x21b8	; 0x21b8 <Encode>
}
    2380:	0f 90       	pop	r0
    2382:	0f 90       	pop	r0
    2384:	0f 90       	pop	r0
    2386:	df 91       	pop	r29
    2388:	cf 91       	pop	r28
    238a:	08 95       	ret

0000238c <Tracker_Init>:
static Tracker_Caja_t g_cajas[TRACKER_MAX_CAJAS_EN_CINTA];
static uint8_t g_id_contador = 0;
static uint32_t g_ticket_global = 0;

void Tracker_Init(void) {
	g_id_contador = 0;
    238c:	10 92 60 01 	sts	0x0160, r1	; 0x800160 <g_id_contador>
	g_ticket_global = 0;
    2390:	10 92 5c 01 	sts	0x015C, r1	; 0x80015c <g_ticket_global>
    2394:	10 92 5d 01 	sts	0x015D, r1	; 0x80015d <g_ticket_global+0x1>
    2398:	10 92 5e 01 	sts	0x015E, r1	; 0x80015e <g_ticket_global+0x2>
    239c:	10 92 5f 01 	sts	0x015F, r1	; 0x80015f <g_ticket_global+0x3>
	for(uint8_t i=0; i<TRACKER_MAX_CAJAS_EN_CINTA; i++) {
    23a0:	80 e0       	ldi	r24, 0x00	; 0
    23a2:	0c c0       	rjmp	.+24     	; 0x23bc <Tracker_Init+0x30>
		g_cajas[i].activa = 0;
    23a4:	e8 2f       	mov	r30, r24
    23a6:	f0 e0       	ldi	r31, 0x00	; 0
    23a8:	ee 0f       	add	r30, r30
    23aa:	ff 1f       	adc	r31, r31
    23ac:	ee 0f       	add	r30, r30
    23ae:	ff 1f       	adc	r31, r31
    23b0:	ee 0f       	add	r30, r30
    23b2:	ff 1f       	adc	r31, r31
    23b4:	ef 59       	subi	r30, 0x9F	; 159
    23b6:	fe 4f       	sbci	r31, 0xFE	; 254
    23b8:	13 82       	std	Z+3, r1	; 0x03
static uint32_t g_ticket_global = 0;

void Tracker_Init(void) {
	g_id_contador = 0;
	g_ticket_global = 0;
	for(uint8_t i=0; i<TRACKER_MAX_CAJAS_EN_CINTA; i++) {
    23ba:	8f 5f       	subi	r24, 0xFF	; 255
    23bc:	88 30       	cpi	r24, 0x08	; 8
    23be:	90 f3       	brcs	.-28     	; 0x23a4 <Tracker_Init+0x18>
		g_cajas[i].activa = 0;
	}
}
    23c0:	08 95       	ret

000023c2 <Tracker_NuevaCaja>:
	payload[2] = zona;
	Encode(CMD_STATUS_CINTA, payload, 3U);
}

// Se llama cuando el S0 termina de medir y sabemos qué caja es
void Tracker_NuevaCaja(Clasificador_TipoCaja_t tipo) {
    23c2:	0f 93       	push	r16
    23c4:	1f 93       	push	r17
	if (tipo == CAJA_NINGUNA) return;
    23c6:	88 23       	and	r24, r24
    23c8:	09 f4       	brne	.+2      	; 0x23cc <Tracker_NuevaCaja+0xa>
    23ca:	4b c0       	rjmp	.+150    	; 0x2462 <Tracker_NuevaCaja+0xa0>
    23cc:	90 e0       	ldi	r25, 0x00	; 0
    23ce:	46 c0       	rjmp	.+140    	; 0x245c <Tracker_NuevaCaja+0x9a>

	for(uint8_t i=0; i<TRACKER_MAX_CAJAS_EN_CINTA; i++) {
		if (!g_cajas[i].activa) {
    23d0:	29 2f       	mov	r18, r25
    23d2:	30 e0       	ldi	r19, 0x00	; 0
    23d4:	f9 01       	movw	r30, r18
    23d6:	ee 0f       	add	r30, r30
    23d8:	ff 1f       	adc	r31, r31
    23da:	ee 0f       	add	r30, r30
    23dc:	ff 1f       	adc	r31, r31
    23de:	ee 0f       	add	r30, r30
    23e0:	ff 1f       	adc	r31, r31
    23e2:	ef 59       	subi	r30, 0x9F	; 159
    23e4:	fe 4f       	sbci	r31, 0xFE	; 254
    23e6:	43 81       	ldd	r20, Z+3	; 0x03
    23e8:	41 11       	cpse	r20, r1
    23ea:	37 c0       	rjmp	.+110    	; 0x245a <Tracker_NuevaCaja+0x98>
			g_id_contador++;
    23ec:	90 91 60 01 	lds	r25, 0x0160	; 0x800160 <g_id_contador>
    23f0:	9f 5f       	subi	r25, 0xFF	; 255
    23f2:	90 93 60 01 	sts	0x0160, r25	; 0x800160 <g_id_contador>
			if (g_id_contador == 0) g_id_contador = 1; // Evitamos mandar ID 0
    23f6:	91 11       	cpse	r25, r1
    23f8:	03 c0       	rjmp	.+6      	; 0x2400 <Tracker_NuevaCaja+0x3e>
    23fa:	91 e0       	ldi	r25, 0x01	; 1
    23fc:	90 93 60 01 	sts	0x0160, r25	; 0x800160 <g_id_contador>
    2400:	68 2f       	mov	r22, r24

			g_cajas[i].id = g_id_contador;
    2402:	22 0f       	add	r18, r18
    2404:	33 1f       	adc	r19, r19
    2406:	22 0f       	add	r18, r18
    2408:	33 1f       	adc	r19, r19
    240a:	22 0f       	add	r18, r18
    240c:	33 1f       	adc	r19, r19
    240e:	f9 01       	movw	r30, r18
    2410:	ef 59       	subi	r30, 0x9F	; 159
    2412:	fe 4f       	sbci	r31, 0xFE	; 254
    2414:	80 91 60 01 	lds	r24, 0x0160	; 0x800160 <g_id_contador>
    2418:	80 83       	st	Z, r24
			g_cajas[i].tipo = (uint8_t)tipo;
    241a:	61 83       	std	Z+1, r22	; 0x01
			g_cajas[i].zona = ZONA_1_S0_S1;
    241c:	91 e0       	ldi	r25, 0x01	; 1
    241e:	92 83       	std	Z+2, r25	; 0x02
			g_cajas[i].activa = 1;
    2420:	93 83       	std	Z+3, r25	; 0x03
			g_cajas[i].ticket = ++g_ticket_global;
    2422:	00 91 5c 01 	lds	r16, 0x015C	; 0x80015c <g_ticket_global>
    2426:	10 91 5d 01 	lds	r17, 0x015D	; 0x80015d <g_ticket_global+0x1>
    242a:	20 91 5e 01 	lds	r18, 0x015E	; 0x80015e <g_ticket_global+0x2>
    242e:	30 91 5f 01 	lds	r19, 0x015F	; 0x80015f <g_ticket_global+0x3>
    2432:	0f 5f       	subi	r16, 0xFF	; 255
    2434:	1f 4f       	sbci	r17, 0xFF	; 255
    2436:	2f 4f       	sbci	r18, 0xFF	; 255
    2438:	3f 4f       	sbci	r19, 0xFF	; 255
    243a:	00 93 5c 01 	sts	0x015C, r16	; 0x80015c <g_ticket_global>
    243e:	10 93 5d 01 	sts	0x015D, r17	; 0x80015d <g_ticket_global+0x1>
    2442:	20 93 5e 01 	sts	0x015E, r18	; 0x80015e <g_ticket_global+0x2>
    2446:	30 93 5f 01 	sts	0x015F, r19	; 0x80015f <g_ticket_global+0x3>
    244a:	04 83       	std	Z+4, r16	; 0x04
    244c:	15 83       	std	Z+5, r17	; 0x05
    244e:	26 83       	std	Z+6, r18	; 0x06
    2450:	37 83       	std	Z+7, r19	; 0x07

			Tracker_EnviarHMI(g_cajas[i].id, g_cajas[i].tipo, g_cajas[i].zona);
    2452:	41 e0       	ldi	r20, 0x01	; 1
    2454:	0e 94 b0 11 	call	0x2360	; 0x2360 <Tracker_EnviarHMI>
			return;
    2458:	04 c0       	rjmp	.+8      	; 0x2462 <Tracker_NuevaCaja+0xa0>

// Se llama cuando el S0 termina de medir y sabemos qué caja es
void Tracker_NuevaCaja(Clasificador_TipoCaja_t tipo) {
	if (tipo == CAJA_NINGUNA) return;

	for(uint8_t i=0; i<TRACKER_MAX_CAJAS_EN_CINTA; i++) {
    245a:	9f 5f       	subi	r25, 0xFF	; 255
    245c:	98 30       	cpi	r25, 0x08	; 8
    245e:	08 f4       	brcc	.+2      	; 0x2462 <Tracker_NuevaCaja+0xa0>
    2460:	b7 cf       	rjmp	.-146    	; 0x23d0 <Tracker_NuevaCaja+0xe>

			Tracker_EnviarHMI(g_cajas[i].id, g_cajas[i].tipo, g_cajas[i].zona);
			return;
		}
	}
}
    2462:	1f 91       	pop	r17
    2464:	0f 91       	pop	r16
    2466:	08 95       	ret

00002468 <Tracker_TransicionSensor>:

// Se llama cuando un sensor S1, S2 o S3 deja de ver la caja (flanco bajada)
void Tracker_TransicionSensor(uint8_t id_sensor) {
    2468:	cf 92       	push	r12
    246a:	df 92       	push	r13
    246c:	ef 92       	push	r14
    246e:	ff 92       	push	r15
    2470:	0f 93       	push	r16
    2472:	1f 93       	push	r17
    2474:	cf 93       	push	r28
	uint8_t zona_origen = id_sensor;          // Ej: Si S1 dejó de verla, estaba en Zona 1...
	uint8_t zona_destino = id_sensor + 1;     // ...y acaba de pasar a la Zona 2.
    2476:	c1 e0       	ldi	r28, 0x01	; 1
    2478:	c8 0f       	add	r28, r24
	
	int8_t idx_mas_vieja = -1;
	uint32_t ticket_minimo = 0xFFFFFFFF;

	// Buscamos la caja más antigua en la zona de origen
	for(uint8_t i=0; i<TRACKER_MAX_CAJAS_EN_CINTA; i++) {
    247a:	90 e0       	ldi	r25, 0x00	; 0
void Tracker_TransicionSensor(uint8_t id_sensor) {
	uint8_t zona_origen = id_sensor;          // Ej: Si S1 dejó de verla, estaba en Zona 1...
	uint8_t zona_destino = id_sensor + 1;     // ...y acaba de pasar a la Zona 2.
	
	int8_t idx_mas_vieja = -1;
	uint32_t ticket_minimo = 0xFFFFFFFF;
    247c:	cc 24       	eor	r12, r12
    247e:	ca 94       	dec	r12
    2480:	dc 2c       	mov	r13, r12
    2482:	76 01       	movw	r14, r12
// Se llama cuando un sensor S1, S2 o S3 deja de ver la caja (flanco bajada)
void Tracker_TransicionSensor(uint8_t id_sensor) {
	uint8_t zona_origen = id_sensor;          // Ej: Si S1 dejó de verla, estaba en Zona 1...
	uint8_t zona_destino = id_sensor + 1;     // ...y acaba de pasar a la Zona 2.
	
	int8_t idx_mas_vieja = -1;
    2484:	0f ef       	ldi	r16, 0xFF	; 255
	uint32_t ticket_minimo = 0xFFFFFFFF;

	// Buscamos la caja más antigua en la zona de origen
	for(uint8_t i=0; i<TRACKER_MAX_CAJAS_EN_CINTA; i++) {
    2486:	30 c0       	rjmp	.+96     	; 0x24e8 <Tracker_TransicionSensor+0x80>
		if (g_cajas[i].activa && g_cajas[i].zona == zona_origen) {
    2488:	29 2f       	mov	r18, r25
    248a:	30 e0       	ldi	r19, 0x00	; 0
    248c:	f9 01       	movw	r30, r18
    248e:	ee 0f       	add	r30, r30
    2490:	ff 1f       	adc	r31, r31
    2492:	ee 0f       	add	r30, r30
    2494:	ff 1f       	adc	r31, r31
    2496:	ee 0f       	add	r30, r30
    2498:	ff 1f       	adc	r31, r31
    249a:	ef 59       	subi	r30, 0x9F	; 159
    249c:	fe 4f       	sbci	r31, 0xFE	; 254
    249e:	43 81       	ldd	r20, Z+3	; 0x03
    24a0:	44 23       	and	r20, r20
    24a2:	09 f1       	breq	.+66     	; 0x24e6 <Tracker_TransicionSensor+0x7e>
    24a4:	f9 01       	movw	r30, r18
    24a6:	ee 0f       	add	r30, r30
    24a8:	ff 1f       	adc	r31, r31
    24aa:	ee 0f       	add	r30, r30
    24ac:	ff 1f       	adc	r31, r31
    24ae:	ee 0f       	add	r30, r30
    24b0:	ff 1f       	adc	r31, r31
    24b2:	ef 59       	subi	r30, 0x9F	; 159
    24b4:	fe 4f       	sbci	r31, 0xFE	; 254
    24b6:	42 81       	ldd	r20, Z+2	; 0x02
    24b8:	84 13       	cpse	r24, r20
    24ba:	15 c0       	rjmp	.+42     	; 0x24e6 <Tracker_TransicionSensor+0x7e>
			if (g_cajas[i].ticket < ticket_minimo) {
    24bc:	22 0f       	add	r18, r18
    24be:	33 1f       	adc	r19, r19
    24c0:	22 0f       	add	r18, r18
    24c2:	33 1f       	adc	r19, r19
    24c4:	22 0f       	add	r18, r18
    24c6:	33 1f       	adc	r19, r19
    24c8:	f9 01       	movw	r30, r18
    24ca:	ef 59       	subi	r30, 0x9F	; 159
    24cc:	fe 4f       	sbci	r31, 0xFE	; 254
    24ce:	44 81       	ldd	r20, Z+4	; 0x04
    24d0:	55 81       	ldd	r21, Z+5	; 0x05
    24d2:	66 81       	ldd	r22, Z+6	; 0x06
    24d4:	77 81       	ldd	r23, Z+7	; 0x07
    24d6:	4c 15       	cp	r20, r12
    24d8:	5d 05       	cpc	r21, r13
    24da:	6e 05       	cpc	r22, r14
    24dc:	7f 05       	cpc	r23, r15
    24de:	18 f4       	brcc	.+6      	; 0x24e6 <Tracker_TransicionSensor+0x7e>
				ticket_minimo = g_cajas[i].ticket;
				idx_mas_vieja = i;
    24e0:	09 2f       	mov	r16, r25

	// Buscamos la caja más antigua en la zona de origen
	for(uint8_t i=0; i<TRACKER_MAX_CAJAS_EN_CINTA; i++) {
		if (g_cajas[i].activa && g_cajas[i].zona == zona_origen) {
			if (g_cajas[i].ticket < ticket_minimo) {
				ticket_minimo = g_cajas[i].ticket;
    24e2:	6a 01       	movw	r12, r20
    24e4:	7b 01       	movw	r14, r22
	
	int8_t idx_mas_vieja = -1;
	uint32_t ticket_minimo = 0xFFFFFFFF;

	// Buscamos la caja más antigua en la zona de origen
	for(uint8_t i=0; i<TRACKER_MAX_CAJAS_EN_CINTA; i++) {
    24e6:	9f 5f       	subi	r25, 0xFF	; 255
    24e8:	98 30       	cpi	r25, 0x08	; 8
    24ea:	70 f2       	brcs	.-100    	; 0x2488 <Tracker_TransicionSensor+0x20>
				idx_mas_vieja = i;
			}
		}
	}

		if (idx_mas_vieja != -1) {
    24ec:	0f 3f       	cpi	r16, 0xFF	; 255
    24ee:	51 f1       	breq	.+84     	; 0x2544 <Tracker_TransicionSensor+0xdc>
			g_cajas[idx_mas_vieja].zona = zona_destino;
    24f0:	00 2e       	mov	r0, r16
    24f2:	00 0c       	add	r0, r0
    24f4:	11 0b       	sbc	r17, r17
    24f6:	f8 01       	movw	r30, r16
    24f8:	ee 0f       	add	r30, r30
    24fa:	ff 1f       	adc	r31, r31
    24fc:	ee 0f       	add	r30, r30
    24fe:	ff 1f       	adc	r31, r31
    2500:	ee 0f       	add	r30, r30
    2502:	ff 1f       	adc	r31, r31
    2504:	ef 59       	subi	r30, 0x9F	; 159
    2506:	fe 4f       	sbci	r31, 0xFE	; 254
    2508:	c2 83       	std	Z+2, r28	; 0x02
			Tracker_EnviarHMI(g_cajas[idx_mas_vieja].id, g_cajas[idx_mas_vieja].tipo, zona_destino);
    250a:	4c 2f       	mov	r20, r28
    250c:	61 81       	ldd	r22, Z+1	; 0x01
    250e:	80 81       	ld	r24, Z
    2510:	0e 94 b0 11 	call	0x2360	; 0x2360 <Tracker_EnviarHMI>
	
			// Si acaba de pasar el S3, se cae al tacho de basura
			if (zona_destino == ZONA_4_DESCARTE) {
    2514:	c4 30       	cpi	r28, 0x04	; 4
    2516:	b1 f4       	brne	.+44     	; 0x2544 <Tracker_TransicionSensor+0xdc>
				// Si es una caja desconocida, sabemos que ningún brazo la va a patear.
				// La borramos de la RAM del microcontrolador al instante.
				if (g_cajas[idx_mas_vieja].tipo == (uint8_t)CAJA_DESCONOCIDA) {
    2518:	f8 01       	movw	r30, r16
    251a:	ee 0f       	add	r30, r30
    251c:	ff 1f       	adc	r31, r31
    251e:	ee 0f       	add	r30, r30
    2520:	ff 1f       	adc	r31, r31
    2522:	ee 0f       	add	r30, r30
    2524:	ff 1f       	adc	r31, r31
    2526:	ef 59       	subi	r30, 0x9F	; 159
    2528:	fe 4f       	sbci	r31, 0xFE	; 254
    252a:	81 81       	ldd	r24, Z+1	; 0x01
    252c:	84 30       	cpi	r24, 0x04	; 4
    252e:	51 f4       	brne	.+20     	; 0x2544 <Tracker_TransicionSensor+0xdc>
					g_cajas[idx_mas_vieja].activa = 0;
    2530:	00 0f       	add	r16, r16
    2532:	11 1f       	adc	r17, r17
    2534:	00 0f       	add	r16, r16
    2536:	11 1f       	adc	r17, r17
    2538:	00 0f       	add	r16, r16
    253a:	11 1f       	adc	r17, r17
    253c:	f8 01       	movw	r30, r16
    253e:	ef 59       	subi	r30, 0x9F	; 159
    2540:	fe 4f       	sbci	r31, 0xFE	; 254
    2542:	13 82       	std	Z+3, r1	; 0x03
				// (Si fuera una caja GRANDE, la borraremos cuando el brazo 3 termine de golpearla).
			}
		}

	
	}	
    2544:	cf 91       	pop	r28
    2546:	1f 91       	pop	r17
    2548:	0f 91       	pop	r16
    254a:	ff 90       	pop	r15
    254c:	ef 90       	pop	r14
    254e:	df 90       	pop	r13
    2550:	cf 90       	pop	r12
    2552:	08 95       	ret

00002554 <Tracker_CajaEyectada>:

// Se llama cuando un brazo eyector termina de golpearla
void Tracker_CajaEyectada(Clasificador_TipoCaja_t tipo_asignado_brazo) {
    2554:	cf 92       	push	r12
    2556:	df 92       	push	r13
    2558:	ef 92       	push	r14
    255a:	ff 92       	push	r15
    255c:	cf 93       	push	r28
    255e:	df 93       	push	r29
	int8_t idx_mas_vieja = -1;
	uint32_t ticket_minimo = 0xFFFFFFFF;

	// Buscamos la caja más vieja que coincida con el tipo de ese brazo
	for(uint8_t i=0; i<TRACKER_MAX_CAJAS_EN_CINTA; i++) {
    2560:	90 e0       	ldi	r25, 0x00	; 0
	}	

// Se llama cuando un brazo eyector termina de golpearla
void Tracker_CajaEyectada(Clasificador_TipoCaja_t tipo_asignado_brazo) {
	int8_t idx_mas_vieja = -1;
	uint32_t ticket_minimo = 0xFFFFFFFF;
    2562:	cc 24       	eor	r12, r12
    2564:	ca 94       	dec	r12
    2566:	dc 2c       	mov	r13, r12
    2568:	76 01       	movw	r14, r12
	
	}	

// Se llama cuando un brazo eyector termina de golpearla
void Tracker_CajaEyectada(Clasificador_TipoCaja_t tipo_asignado_brazo) {
	int8_t idx_mas_vieja = -1;
    256a:	cf ef       	ldi	r28, 0xFF	; 255
	uint32_t ticket_minimo = 0xFFFFFFFF;

	// Buscamos la caja más vieja que coincida con el tipo de ese brazo
	for(uint8_t i=0; i<TRACKER_MAX_CAJAS_EN_CINTA; i++) {
    256c:	30 c0       	rjmp	.+96     	; 0x25ce <Tracker_CajaEyectada+0x7a>
		if (g_cajas[i].activa && g_cajas[i].tipo == (uint8_t)tipo_asignado_brazo) {
    256e:	29 2f       	mov	r18, r25
    2570:	30 e0       	ldi	r19, 0x00	; 0
    2572:	f9 01       	movw	r30, r18
    2574:	ee 0f       	add	r30, r30
    2576:	ff 1f       	adc	r31, r31
    2578:	ee 0f       	add	r30, r30
    257a:	ff 1f       	adc	r31, r31
    257c:	ee 0f       	add	r30, r30
    257e:	ff 1f       	adc	r31, r31
    2580:	ef 59       	subi	r30, 0x9F	; 159
    2582:	fe 4f       	sbci	r31, 0xFE	; 254
    2584:	43 81       	ldd	r20, Z+3	; 0x03
    2586:	44 23       	and	r20, r20
    2588:	09 f1       	breq	.+66     	; 0x25cc <Tracker_CajaEyectada+0x78>
    258a:	f9 01       	movw	r30, r18
    258c:	ee 0f       	add	r30, r30
    258e:	ff 1f       	adc	r31, r31
    2590:	ee 0f       	add	r30, r30
    2592:	ff 1f       	adc	r31, r31
    2594:	ee 0f       	add	r30, r30
    2596:	ff 1f       	adc	r31, r31
    2598:	ef 59       	subi	r30, 0x9F	; 159
    259a:	fe 4f       	sbci	r31, 0xFE	; 254
    259c:	41 81       	ldd	r20, Z+1	; 0x01
    259e:	48 13       	cpse	r20, r24
    25a0:	15 c0       	rjmp	.+42     	; 0x25cc <Tracker_CajaEyectada+0x78>
			if (g_cajas[i].ticket < ticket_minimo) {
    25a2:	22 0f       	add	r18, r18
    25a4:	33 1f       	adc	r19, r19
    25a6:	22 0f       	add	r18, r18
    25a8:	33 1f       	adc	r19, r19
    25aa:	22 0f       	add	r18, r18
    25ac:	33 1f       	adc	r19, r19
    25ae:	f9 01       	movw	r30, r18
    25b0:	ef 59       	subi	r30, 0x9F	; 159
    25b2:	fe 4f       	sbci	r31, 0xFE	; 254
    25b4:	44 81       	ldd	r20, Z+4	; 0x04
    25b6:	55 81       	ldd	r21, Z+5	; 0x05
    25b8:	66 81       	ldd	r22, Z+6	; 0x06
    25ba:	77 81       	ldd	r23, Z+7	; 0x07
    25bc:	4c 15       	cp	r20, r12
    25be:	5d 05       	cpc	r21, r13
    25c0:	6e 05       	cpc	r22, r14
    25c2:	7f 05       	cpc	r23, r15
    25c4:	18 f4       	brcc	.+6      	; 0x25cc <Tracker_CajaEyectada+0x78>
				ticket_minimo = g_cajas[i].ticket;
				idx_mas_vieja = i;
    25c6:	c9 2f       	mov	r28, r25

	// Buscamos la caja más vieja que coincida con el tipo de ese brazo
	for(uint8_t i=0; i<TRACKER_MAX_CAJAS_EN_CINTA; i++) {
		if (g_cajas[i].activa && g_cajas[i].tipo == (uint8_t)tipo_asignado_brazo) {
			if (g_cajas[i].ticket < ticket_minimo) {
				ticket_minimo = g_cajas[i].ticket;
    25c8:	6a 01       	movw	r12, r20
    25ca:	7b 01       	movw	r14, r22
void Tracker_CajaEyectada(Clasificador_TipoCaja_t tipo_asignado_brazo) {
	int8_t idx_mas_vieja = -1;
	uint32_t ticket_minimo = 0xFFFFFFFF;

	// Buscamos la caja más vieja que coincida con el tipo de ese brazo
	for(uint8_t i=0; i<TRACKER_MAX_CAJAS_EN_CINTA; i++) {
    25cc:	9f 5f       	subi	r25, 0xFF	; 255
    25ce:	98 30       	cpi	r25, 0x08	; 8
    25d0:	70 f2       	brcs	.-100    	; 0x256e <Tracker_CajaEyectada+0x1a>
				idx_mas_vieja = i;
			}
		}
	}

	if (idx_mas_vieja != -1) {
    25d2:	cf 3f       	cpi	r28, 0xFF	; 255
    25d4:	61 f0       	breq	.+24     	; 0x25ee <Tracker_CajaEyectada+0x9a>
		Tracker_EnviarHMI(g_cajas[idx_mas_vieja].id, g_cajas[idx_mas_vieja].tipo, ZONA_EYECTADA);
    25d6:	88 e0       	ldi	r24, 0x08	; 8
    25d8:	c8 02       	muls	r28, r24
    25da:	e0 01       	movw	r28, r0
    25dc:	11 24       	eor	r1, r1
    25de:	cf 59       	subi	r28, 0x9F	; 159
    25e0:	de 4f       	sbci	r29, 0xFE	; 254
    25e2:	45 e0       	ldi	r20, 0x05	; 5
    25e4:	69 81       	ldd	r22, Y+1	; 0x01
    25e6:	88 81       	ld	r24, Y
    25e8:	0e 94 b0 11 	call	0x2360	; 0x2360 <Tracker_EnviarHMI>
		g_cajas[idx_mas_vieja].activa = 0; // Liberamos la memoria
    25ec:	1b 82       	std	Y+3, r1	; 0x03
	}
    25ee:	df 91       	pop	r29
    25f0:	cf 91       	pop	r28
    25f2:	ff 90       	pop	r15
    25f4:	ef 90       	pop	r14
    25f6:	df 90       	pop	r13
    25f8:	cf 90       	pop	r12
    25fa:	08 95       	ret

000025fc <__subsf3>:
    25fc:	50 58       	subi	r21, 0x80	; 128

000025fe <__addsf3>:
    25fe:	bb 27       	eor	r27, r27
    2600:	aa 27       	eor	r26, r26
    2602:	0e 94 16 13 	call	0x262c	; 0x262c <__addsf3x>
    2606:	0c 94 90 14 	jmp	0x2920	; 0x2920 <__fp_round>
    260a:	0e 94 82 14 	call	0x2904	; 0x2904 <__fp_pscA>
    260e:	38 f0       	brcs	.+14     	; 0x261e <__addsf3+0x20>
    2610:	0e 94 89 14 	call	0x2912	; 0x2912 <__fp_pscB>
    2614:	20 f0       	brcs	.+8      	; 0x261e <__addsf3+0x20>
    2616:	39 f4       	brne	.+14     	; 0x2626 <__addsf3+0x28>
    2618:	9f 3f       	cpi	r25, 0xFF	; 255
    261a:	19 f4       	brne	.+6      	; 0x2622 <__addsf3+0x24>
    261c:	26 f4       	brtc	.+8      	; 0x2626 <__addsf3+0x28>
    261e:	0c 94 7f 14 	jmp	0x28fe	; 0x28fe <__fp_nan>
    2622:	0e f4       	brtc	.+2      	; 0x2626 <__addsf3+0x28>
    2624:	e0 95       	com	r30
    2626:	e7 fb       	bst	r30, 7
    2628:	0c 94 79 14 	jmp	0x28f2	; 0x28f2 <__fp_inf>

0000262c <__addsf3x>:
    262c:	e9 2f       	mov	r30, r25
    262e:	0e 94 a1 14 	call	0x2942	; 0x2942 <__fp_split3>
    2632:	58 f3       	brcs	.-42     	; 0x260a <__addsf3+0xc>
    2634:	ba 17       	cp	r27, r26
    2636:	62 07       	cpc	r22, r18
    2638:	73 07       	cpc	r23, r19
    263a:	84 07       	cpc	r24, r20
    263c:	95 07       	cpc	r25, r21
    263e:	20 f0       	brcs	.+8      	; 0x2648 <__addsf3x+0x1c>
    2640:	79 f4       	brne	.+30     	; 0x2660 <__addsf3x+0x34>
    2642:	a6 f5       	brtc	.+104    	; 0x26ac <__addsf3x+0x80>
    2644:	0c 94 c3 14 	jmp	0x2986	; 0x2986 <__fp_zero>
    2648:	0e f4       	brtc	.+2      	; 0x264c <__addsf3x+0x20>
    264a:	e0 95       	com	r30
    264c:	0b 2e       	mov	r0, r27
    264e:	ba 2f       	mov	r27, r26
    2650:	a0 2d       	mov	r26, r0
    2652:	0b 01       	movw	r0, r22
    2654:	b9 01       	movw	r22, r18
    2656:	90 01       	movw	r18, r0
    2658:	0c 01       	movw	r0, r24
    265a:	ca 01       	movw	r24, r20
    265c:	a0 01       	movw	r20, r0
    265e:	11 24       	eor	r1, r1
    2660:	ff 27       	eor	r31, r31
    2662:	59 1b       	sub	r21, r25
    2664:	99 f0       	breq	.+38     	; 0x268c <__addsf3x+0x60>
    2666:	59 3f       	cpi	r21, 0xF9	; 249
    2668:	50 f4       	brcc	.+20     	; 0x267e <__addsf3x+0x52>
    266a:	50 3e       	cpi	r21, 0xE0	; 224
    266c:	68 f1       	brcs	.+90     	; 0x26c8 <__addsf3x+0x9c>
    266e:	1a 16       	cp	r1, r26
    2670:	f0 40       	sbci	r31, 0x00	; 0
    2672:	a2 2f       	mov	r26, r18
    2674:	23 2f       	mov	r18, r19
    2676:	34 2f       	mov	r19, r20
    2678:	44 27       	eor	r20, r20
    267a:	58 5f       	subi	r21, 0xF8	; 248
    267c:	f3 cf       	rjmp	.-26     	; 0x2664 <__addsf3x+0x38>
    267e:	46 95       	lsr	r20
    2680:	37 95       	ror	r19
    2682:	27 95       	ror	r18
    2684:	a7 95       	ror	r26
    2686:	f0 40       	sbci	r31, 0x00	; 0
    2688:	53 95       	inc	r21
    268a:	c9 f7       	brne	.-14     	; 0x267e <__addsf3x+0x52>
    268c:	7e f4       	brtc	.+30     	; 0x26ac <__addsf3x+0x80>
    268e:	1f 16       	cp	r1, r31
    2690:	ba 0b       	sbc	r27, r26
    2692:	62 0b       	sbc	r22, r18
    2694:	73 0b       	sbc	r23, r19
    2696:	84 0b       	sbc	r24, r20
    2698:	ba f0       	brmi	.+46     	; 0x26c8 <__addsf3x+0x9c>
    269a:	91 50       	subi	r25, 0x01	; 1
    269c:	a1 f0       	breq	.+40     	; 0x26c6 <__addsf3x+0x9a>
    269e:	ff 0f       	add	r31, r31
    26a0:	bb 1f       	adc	r27, r27
    26a2:	66 1f       	adc	r22, r22
    26a4:	77 1f       	adc	r23, r23
    26a6:	88 1f       	adc	r24, r24
    26a8:	c2 f7       	brpl	.-16     	; 0x269a <__addsf3x+0x6e>
    26aa:	0e c0       	rjmp	.+28     	; 0x26c8 <__addsf3x+0x9c>
    26ac:	ba 0f       	add	r27, r26
    26ae:	62 1f       	adc	r22, r18
    26b0:	73 1f       	adc	r23, r19
    26b2:	84 1f       	adc	r24, r20
    26b4:	48 f4       	brcc	.+18     	; 0x26c8 <__addsf3x+0x9c>
    26b6:	87 95       	ror	r24
    26b8:	77 95       	ror	r23
    26ba:	67 95       	ror	r22
    26bc:	b7 95       	ror	r27
    26be:	f7 95       	ror	r31
    26c0:	9e 3f       	cpi	r25, 0xFE	; 254
    26c2:	08 f0       	brcs	.+2      	; 0x26c6 <__addsf3x+0x9a>
    26c4:	b0 cf       	rjmp	.-160    	; 0x2626 <__addsf3+0x28>
    26c6:	93 95       	inc	r25
    26c8:	88 0f       	add	r24, r24
    26ca:	08 f0       	brcs	.+2      	; 0x26ce <__addsf3x+0xa2>
    26cc:	99 27       	eor	r25, r25
    26ce:	ee 0f       	add	r30, r30
    26d0:	97 95       	ror	r25
    26d2:	87 95       	ror	r24
    26d4:	08 95       	ret

000026d6 <__cmpsf2>:
    26d6:	0e 94 55 14 	call	0x28aa	; 0x28aa <__fp_cmp>
    26da:	08 f4       	brcc	.+2      	; 0x26de <__cmpsf2+0x8>
    26dc:	81 e0       	ldi	r24, 0x01	; 1
    26de:	08 95       	ret

000026e0 <__divsf3>:
    26e0:	0e 94 84 13 	call	0x2708	; 0x2708 <__divsf3x>
    26e4:	0c 94 90 14 	jmp	0x2920	; 0x2920 <__fp_round>
    26e8:	0e 94 89 14 	call	0x2912	; 0x2912 <__fp_pscB>
    26ec:	58 f0       	brcs	.+22     	; 0x2704 <__divsf3+0x24>
    26ee:	0e 94 82 14 	call	0x2904	; 0x2904 <__fp_pscA>
    26f2:	40 f0       	brcs	.+16     	; 0x2704 <__divsf3+0x24>
    26f4:	29 f4       	brne	.+10     	; 0x2700 <__divsf3+0x20>
    26f6:	5f 3f       	cpi	r21, 0xFF	; 255
    26f8:	29 f0       	breq	.+10     	; 0x2704 <__divsf3+0x24>
    26fa:	0c 94 79 14 	jmp	0x28f2	; 0x28f2 <__fp_inf>
    26fe:	51 11       	cpse	r21, r1
    2700:	0c 94 c4 14 	jmp	0x2988	; 0x2988 <__fp_szero>
    2704:	0c 94 7f 14 	jmp	0x28fe	; 0x28fe <__fp_nan>

00002708 <__divsf3x>:
    2708:	0e 94 a1 14 	call	0x2942	; 0x2942 <__fp_split3>
    270c:	68 f3       	brcs	.-38     	; 0x26e8 <__divsf3+0x8>

0000270e <__divsf3_pse>:
    270e:	99 23       	and	r25, r25
    2710:	b1 f3       	breq	.-20     	; 0x26fe <__divsf3+0x1e>
    2712:	55 23       	and	r21, r21
    2714:	91 f3       	breq	.-28     	; 0x26fa <__divsf3+0x1a>
    2716:	95 1b       	sub	r25, r21
    2718:	55 0b       	sbc	r21, r21
    271a:	bb 27       	eor	r27, r27
    271c:	aa 27       	eor	r26, r26
    271e:	62 17       	cp	r22, r18
    2720:	73 07       	cpc	r23, r19
    2722:	84 07       	cpc	r24, r20
    2724:	38 f0       	brcs	.+14     	; 0x2734 <__divsf3_pse+0x26>
    2726:	9f 5f       	subi	r25, 0xFF	; 255
    2728:	5f 4f       	sbci	r21, 0xFF	; 255
    272a:	22 0f       	add	r18, r18
    272c:	33 1f       	adc	r19, r19
    272e:	44 1f       	adc	r20, r20
    2730:	aa 1f       	adc	r26, r26
    2732:	a9 f3       	breq	.-22     	; 0x271e <__divsf3_pse+0x10>
    2734:	35 d0       	rcall	.+106    	; 0x27a0 <__divsf3_pse+0x92>
    2736:	0e 2e       	mov	r0, r30
    2738:	3a f0       	brmi	.+14     	; 0x2748 <__divsf3_pse+0x3a>
    273a:	e0 e8       	ldi	r30, 0x80	; 128
    273c:	32 d0       	rcall	.+100    	; 0x27a2 <__divsf3_pse+0x94>
    273e:	91 50       	subi	r25, 0x01	; 1
    2740:	50 40       	sbci	r21, 0x00	; 0
    2742:	e6 95       	lsr	r30
    2744:	00 1c       	adc	r0, r0
    2746:	ca f7       	brpl	.-14     	; 0x273a <__divsf3_pse+0x2c>
    2748:	2b d0       	rcall	.+86     	; 0x27a0 <__divsf3_pse+0x92>
    274a:	fe 2f       	mov	r31, r30
    274c:	29 d0       	rcall	.+82     	; 0x27a0 <__divsf3_pse+0x92>
    274e:	66 0f       	add	r22, r22
    2750:	77 1f       	adc	r23, r23
    2752:	88 1f       	adc	r24, r24
    2754:	bb 1f       	adc	r27, r27
    2756:	26 17       	cp	r18, r22
    2758:	37 07       	cpc	r19, r23
    275a:	48 07       	cpc	r20, r24
    275c:	ab 07       	cpc	r26, r27
    275e:	b0 e8       	ldi	r27, 0x80	; 128
    2760:	09 f0       	breq	.+2      	; 0x2764 <__divsf3_pse+0x56>
    2762:	bb 0b       	sbc	r27, r27
    2764:	80 2d       	mov	r24, r0
    2766:	bf 01       	movw	r22, r30
    2768:	ff 27       	eor	r31, r31
    276a:	93 58       	subi	r25, 0x83	; 131
    276c:	5f 4f       	sbci	r21, 0xFF	; 255
    276e:	3a f0       	brmi	.+14     	; 0x277e <__divsf3_pse+0x70>
    2770:	9e 3f       	cpi	r25, 0xFE	; 254
    2772:	51 05       	cpc	r21, r1
    2774:	78 f0       	brcs	.+30     	; 0x2794 <__divsf3_pse+0x86>
    2776:	0c 94 79 14 	jmp	0x28f2	; 0x28f2 <__fp_inf>
    277a:	0c 94 c4 14 	jmp	0x2988	; 0x2988 <__fp_szero>
    277e:	5f 3f       	cpi	r21, 0xFF	; 255
    2780:	e4 f3       	brlt	.-8      	; 0x277a <__divsf3_pse+0x6c>
    2782:	98 3e       	cpi	r25, 0xE8	; 232
    2784:	d4 f3       	brlt	.-12     	; 0x277a <__divsf3_pse+0x6c>
    2786:	86 95       	lsr	r24
    2788:	77 95       	ror	r23
    278a:	67 95       	ror	r22
    278c:	b7 95       	ror	r27
    278e:	f7 95       	ror	r31
    2790:	9f 5f       	subi	r25, 0xFF	; 255
    2792:	c9 f7       	brne	.-14     	; 0x2786 <__divsf3_pse+0x78>
    2794:	88 0f       	add	r24, r24
    2796:	91 1d       	adc	r25, r1
    2798:	96 95       	lsr	r25
    279a:	87 95       	ror	r24
    279c:	97 f9       	bld	r25, 7
    279e:	08 95       	ret
    27a0:	e1 e0       	ldi	r30, 0x01	; 1
    27a2:	66 0f       	add	r22, r22
    27a4:	77 1f       	adc	r23, r23
    27a6:	88 1f       	adc	r24, r24
    27a8:	bb 1f       	adc	r27, r27
    27aa:	62 17       	cp	r22, r18
    27ac:	73 07       	cpc	r23, r19
    27ae:	84 07       	cpc	r24, r20
    27b0:	ba 07       	cpc	r27, r26
    27b2:	20 f0       	brcs	.+8      	; 0x27bc <__divsf3_pse+0xae>
    27b4:	62 1b       	sub	r22, r18
    27b6:	73 0b       	sbc	r23, r19
    27b8:	84 0b       	sbc	r24, r20
    27ba:	ba 0b       	sbc	r27, r26
    27bc:	ee 1f       	adc	r30, r30
    27be:	88 f7       	brcc	.-30     	; 0x27a2 <__divsf3_pse+0x94>
    27c0:	e0 95       	com	r30
    27c2:	08 95       	ret

000027c4 <__fixsfsi>:
    27c4:	0e 94 e9 13 	call	0x27d2	; 0x27d2 <__fixunssfsi>
    27c8:	68 94       	set
    27ca:	b1 11       	cpse	r27, r1
    27cc:	0c 94 c4 14 	jmp	0x2988	; 0x2988 <__fp_szero>
    27d0:	08 95       	ret

000027d2 <__fixunssfsi>:
    27d2:	0e 94 a9 14 	call	0x2952	; 0x2952 <__fp_splitA>
    27d6:	88 f0       	brcs	.+34     	; 0x27fa <__fixunssfsi+0x28>
    27d8:	9f 57       	subi	r25, 0x7F	; 127
    27da:	98 f0       	brcs	.+38     	; 0x2802 <__fixunssfsi+0x30>
    27dc:	b9 2f       	mov	r27, r25
    27de:	99 27       	eor	r25, r25
    27e0:	b7 51       	subi	r27, 0x17	; 23
    27e2:	b0 f0       	brcs	.+44     	; 0x2810 <__fixunssfsi+0x3e>
    27e4:	e1 f0       	breq	.+56     	; 0x281e <__fixunssfsi+0x4c>
    27e6:	66 0f       	add	r22, r22
    27e8:	77 1f       	adc	r23, r23
    27ea:	88 1f       	adc	r24, r24
    27ec:	99 1f       	adc	r25, r25
    27ee:	1a f0       	brmi	.+6      	; 0x27f6 <__fixunssfsi+0x24>
    27f0:	ba 95       	dec	r27
    27f2:	c9 f7       	brne	.-14     	; 0x27e6 <__fixunssfsi+0x14>
    27f4:	14 c0       	rjmp	.+40     	; 0x281e <__fixunssfsi+0x4c>
    27f6:	b1 30       	cpi	r27, 0x01	; 1
    27f8:	91 f0       	breq	.+36     	; 0x281e <__fixunssfsi+0x4c>
    27fa:	0e 94 c3 14 	call	0x2986	; 0x2986 <__fp_zero>
    27fe:	b1 e0       	ldi	r27, 0x01	; 1
    2800:	08 95       	ret
    2802:	0c 94 c3 14 	jmp	0x2986	; 0x2986 <__fp_zero>
    2806:	67 2f       	mov	r22, r23
    2808:	78 2f       	mov	r23, r24
    280a:	88 27       	eor	r24, r24
    280c:	b8 5f       	subi	r27, 0xF8	; 248
    280e:	39 f0       	breq	.+14     	; 0x281e <__fixunssfsi+0x4c>
    2810:	b9 3f       	cpi	r27, 0xF9	; 249
    2812:	cc f3       	brlt	.-14     	; 0x2806 <__fixunssfsi+0x34>
    2814:	86 95       	lsr	r24
    2816:	77 95       	ror	r23
    2818:	67 95       	ror	r22
    281a:	b3 95       	inc	r27
    281c:	d9 f7       	brne	.-10     	; 0x2814 <__fixunssfsi+0x42>
    281e:	3e f4       	brtc	.+14     	; 0x282e <__fixunssfsi+0x5c>
    2820:	90 95       	com	r25
    2822:	80 95       	com	r24
    2824:	70 95       	com	r23
    2826:	61 95       	neg	r22
    2828:	7f 4f       	sbci	r23, 0xFF	; 255
    282a:	8f 4f       	sbci	r24, 0xFF	; 255
    282c:	9f 4f       	sbci	r25, 0xFF	; 255
    282e:	08 95       	ret

00002830 <__floatunsisf>:
    2830:	e8 94       	clt
    2832:	09 c0       	rjmp	.+18     	; 0x2846 <__floatsisf+0x12>

00002834 <__floatsisf>:
    2834:	97 fb       	bst	r25, 7
    2836:	3e f4       	brtc	.+14     	; 0x2846 <__floatsisf+0x12>
    2838:	90 95       	com	r25
    283a:	80 95       	com	r24
    283c:	70 95       	com	r23
    283e:	61 95       	neg	r22
    2840:	7f 4f       	sbci	r23, 0xFF	; 255
    2842:	8f 4f       	sbci	r24, 0xFF	; 255
    2844:	9f 4f       	sbci	r25, 0xFF	; 255
    2846:	99 23       	and	r25, r25
    2848:	a9 f0       	breq	.+42     	; 0x2874 <__floatsisf+0x40>
    284a:	f9 2f       	mov	r31, r25
    284c:	96 e9       	ldi	r25, 0x96	; 150
    284e:	bb 27       	eor	r27, r27
    2850:	93 95       	inc	r25
    2852:	f6 95       	lsr	r31
    2854:	87 95       	ror	r24
    2856:	77 95       	ror	r23
    2858:	67 95       	ror	r22
    285a:	b7 95       	ror	r27
    285c:	f1 11       	cpse	r31, r1
    285e:	f8 cf       	rjmp	.-16     	; 0x2850 <__floatsisf+0x1c>
    2860:	fa f4       	brpl	.+62     	; 0x28a0 <__floatsisf+0x6c>
    2862:	bb 0f       	add	r27, r27
    2864:	11 f4       	brne	.+4      	; 0x286a <__floatsisf+0x36>
    2866:	60 ff       	sbrs	r22, 0
    2868:	1b c0       	rjmp	.+54     	; 0x28a0 <__floatsisf+0x6c>
    286a:	6f 5f       	subi	r22, 0xFF	; 255
    286c:	7f 4f       	sbci	r23, 0xFF	; 255
    286e:	8f 4f       	sbci	r24, 0xFF	; 255
    2870:	9f 4f       	sbci	r25, 0xFF	; 255
    2872:	16 c0       	rjmp	.+44     	; 0x28a0 <__floatsisf+0x6c>
    2874:	88 23       	and	r24, r24
    2876:	11 f0       	breq	.+4      	; 0x287c <__floatsisf+0x48>
    2878:	96 e9       	ldi	r25, 0x96	; 150
    287a:	11 c0       	rjmp	.+34     	; 0x289e <__floatsisf+0x6a>
    287c:	77 23       	and	r23, r23
    287e:	21 f0       	breq	.+8      	; 0x2888 <__floatsisf+0x54>
    2880:	9e e8       	ldi	r25, 0x8E	; 142
    2882:	87 2f       	mov	r24, r23
    2884:	76 2f       	mov	r23, r22
    2886:	05 c0       	rjmp	.+10     	; 0x2892 <__floatsisf+0x5e>
    2888:	66 23       	and	r22, r22
    288a:	71 f0       	breq	.+28     	; 0x28a8 <__floatsisf+0x74>
    288c:	96 e8       	ldi	r25, 0x86	; 134
    288e:	86 2f       	mov	r24, r22
    2890:	70 e0       	ldi	r23, 0x00	; 0
    2892:	60 e0       	ldi	r22, 0x00	; 0
    2894:	2a f0       	brmi	.+10     	; 0x28a0 <__floatsisf+0x6c>
    2896:	9a 95       	dec	r25
    2898:	66 0f       	add	r22, r22
    289a:	77 1f       	adc	r23, r23
    289c:	88 1f       	adc	r24, r24
    289e:	da f7       	brpl	.-10     	; 0x2896 <__floatsisf+0x62>
    28a0:	88 0f       	add	r24, r24
    28a2:	96 95       	lsr	r25
    28a4:	87 95       	ror	r24
    28a6:	97 f9       	bld	r25, 7
    28a8:	08 95       	ret

000028aa <__fp_cmp>:
    28aa:	99 0f       	add	r25, r25
    28ac:	00 08       	sbc	r0, r0
    28ae:	55 0f       	add	r21, r21
    28b0:	aa 0b       	sbc	r26, r26
    28b2:	e0 e8       	ldi	r30, 0x80	; 128
    28b4:	fe ef       	ldi	r31, 0xFE	; 254
    28b6:	16 16       	cp	r1, r22
    28b8:	17 06       	cpc	r1, r23
    28ba:	e8 07       	cpc	r30, r24
    28bc:	f9 07       	cpc	r31, r25
    28be:	c0 f0       	brcs	.+48     	; 0x28f0 <__fp_cmp+0x46>
    28c0:	12 16       	cp	r1, r18
    28c2:	13 06       	cpc	r1, r19
    28c4:	e4 07       	cpc	r30, r20
    28c6:	f5 07       	cpc	r31, r21
    28c8:	98 f0       	brcs	.+38     	; 0x28f0 <__fp_cmp+0x46>
    28ca:	62 1b       	sub	r22, r18
    28cc:	73 0b       	sbc	r23, r19
    28ce:	84 0b       	sbc	r24, r20
    28d0:	95 0b       	sbc	r25, r21
    28d2:	39 f4       	brne	.+14     	; 0x28e2 <__fp_cmp+0x38>
    28d4:	0a 26       	eor	r0, r26
    28d6:	61 f0       	breq	.+24     	; 0x28f0 <__fp_cmp+0x46>
    28d8:	23 2b       	or	r18, r19
    28da:	24 2b       	or	r18, r20
    28dc:	25 2b       	or	r18, r21
    28de:	21 f4       	brne	.+8      	; 0x28e8 <__fp_cmp+0x3e>
    28e0:	08 95       	ret
    28e2:	0a 26       	eor	r0, r26
    28e4:	09 f4       	brne	.+2      	; 0x28e8 <__fp_cmp+0x3e>
    28e6:	a1 40       	sbci	r26, 0x01	; 1
    28e8:	a6 95       	lsr	r26
    28ea:	8f ef       	ldi	r24, 0xFF	; 255
    28ec:	81 1d       	adc	r24, r1
    28ee:	81 1d       	adc	r24, r1
    28f0:	08 95       	ret

000028f2 <__fp_inf>:
    28f2:	97 f9       	bld	r25, 7
    28f4:	9f 67       	ori	r25, 0x7F	; 127
    28f6:	80 e8       	ldi	r24, 0x80	; 128
    28f8:	70 e0       	ldi	r23, 0x00	; 0
    28fa:	60 e0       	ldi	r22, 0x00	; 0
    28fc:	08 95       	ret

000028fe <__fp_nan>:
    28fe:	9f ef       	ldi	r25, 0xFF	; 255
    2900:	80 ec       	ldi	r24, 0xC0	; 192
    2902:	08 95       	ret

00002904 <__fp_pscA>:
    2904:	00 24       	eor	r0, r0
    2906:	0a 94       	dec	r0
    2908:	16 16       	cp	r1, r22
    290a:	17 06       	cpc	r1, r23
    290c:	18 06       	cpc	r1, r24
    290e:	09 06       	cpc	r0, r25
    2910:	08 95       	ret

00002912 <__fp_pscB>:
    2912:	00 24       	eor	r0, r0
    2914:	0a 94       	dec	r0
    2916:	12 16       	cp	r1, r18
    2918:	13 06       	cpc	r1, r19
    291a:	14 06       	cpc	r1, r20
    291c:	05 06       	cpc	r0, r21
    291e:	08 95       	ret

00002920 <__fp_round>:
    2920:	09 2e       	mov	r0, r25
    2922:	03 94       	inc	r0
    2924:	00 0c       	add	r0, r0
    2926:	11 f4       	brne	.+4      	; 0x292c <__fp_round+0xc>
    2928:	88 23       	and	r24, r24
    292a:	52 f0       	brmi	.+20     	; 0x2940 <__fp_round+0x20>
    292c:	bb 0f       	add	r27, r27
    292e:	40 f4       	brcc	.+16     	; 0x2940 <__fp_round+0x20>
    2930:	bf 2b       	or	r27, r31
    2932:	11 f4       	brne	.+4      	; 0x2938 <__fp_round+0x18>
    2934:	60 ff       	sbrs	r22, 0
    2936:	04 c0       	rjmp	.+8      	; 0x2940 <__fp_round+0x20>
    2938:	6f 5f       	subi	r22, 0xFF	; 255
    293a:	7f 4f       	sbci	r23, 0xFF	; 255
    293c:	8f 4f       	sbci	r24, 0xFF	; 255
    293e:	9f 4f       	sbci	r25, 0xFF	; 255
    2940:	08 95       	ret

00002942 <__fp_split3>:
    2942:	57 fd       	sbrc	r21, 7
    2944:	90 58       	subi	r25, 0x80	; 128
    2946:	44 0f       	add	r20, r20
    2948:	55 1f       	adc	r21, r21
    294a:	59 f0       	breq	.+22     	; 0x2962 <__fp_splitA+0x10>
    294c:	5f 3f       	cpi	r21, 0xFF	; 255
    294e:	71 f0       	breq	.+28     	; 0x296c <__fp_splitA+0x1a>
    2950:	47 95       	ror	r20

00002952 <__fp_splitA>:
    2952:	88 0f       	add	r24, r24
    2954:	97 fb       	bst	r25, 7
    2956:	99 1f       	adc	r25, r25
    2958:	61 f0       	breq	.+24     	; 0x2972 <__fp_splitA+0x20>
    295a:	9f 3f       	cpi	r25, 0xFF	; 255
    295c:	79 f0       	breq	.+30     	; 0x297c <__fp_splitA+0x2a>
    295e:	87 95       	ror	r24
    2960:	08 95       	ret
    2962:	12 16       	cp	r1, r18
    2964:	13 06       	cpc	r1, r19
    2966:	14 06       	cpc	r1, r20
    2968:	55 1f       	adc	r21, r21
    296a:	f2 cf       	rjmp	.-28     	; 0x2950 <__fp_split3+0xe>
    296c:	46 95       	lsr	r20
    296e:	f1 df       	rcall	.-30     	; 0x2952 <__fp_splitA>
    2970:	08 c0       	rjmp	.+16     	; 0x2982 <__fp_splitA+0x30>
    2972:	16 16       	cp	r1, r22
    2974:	17 06       	cpc	r1, r23
    2976:	18 06       	cpc	r1, r24
    2978:	99 1f       	adc	r25, r25
    297a:	f1 cf       	rjmp	.-30     	; 0x295e <__fp_splitA+0xc>
    297c:	86 95       	lsr	r24
    297e:	71 05       	cpc	r23, r1
    2980:	61 05       	cpc	r22, r1
    2982:	08 94       	sec
    2984:	08 95       	ret

00002986 <__fp_zero>:
    2986:	e8 94       	clt

00002988 <__fp_szero>:
    2988:	bb 27       	eor	r27, r27
    298a:	66 27       	eor	r22, r22
    298c:	77 27       	eor	r23, r23
    298e:	cb 01       	movw	r24, r22
    2990:	97 f9       	bld	r25, 7
    2992:	08 95       	ret

00002994 <__gesf2>:
    2994:	0e 94 55 14 	call	0x28aa	; 0x28aa <__fp_cmp>
    2998:	08 f4       	brcc	.+2      	; 0x299c <__gesf2+0x8>
    299a:	8f ef       	ldi	r24, 0xFF	; 255
    299c:	08 95       	ret

0000299e <__mulsf3>:
    299e:	0e 94 e2 14 	call	0x29c4	; 0x29c4 <__mulsf3x>
    29a2:	0c 94 90 14 	jmp	0x2920	; 0x2920 <__fp_round>
    29a6:	0e 94 82 14 	call	0x2904	; 0x2904 <__fp_pscA>
    29aa:	38 f0       	brcs	.+14     	; 0x29ba <__mulsf3+0x1c>
    29ac:	0e 94 89 14 	call	0x2912	; 0x2912 <__fp_pscB>
    29b0:	20 f0       	brcs	.+8      	; 0x29ba <__mulsf3+0x1c>
    29b2:	95 23       	and	r25, r21
    29b4:	11 f0       	breq	.+4      	; 0x29ba <__mulsf3+0x1c>
    29b6:	0c 94 79 14 	jmp	0x28f2	; 0x28f2 <__fp_inf>
    29ba:	0c 94 7f 14 	jmp	0x28fe	; 0x28fe <__fp_nan>
    29be:	11 24       	eor	r1, r1
    29c0:	0c 94 c4 14 	jmp	0x2988	; 0x2988 <__fp_szero>

000029c4 <__mulsf3x>:
    29c4:	0e 94 a1 14 	call	0x2942	; 0x2942 <__fp_split3>
    29c8:	70 f3       	brcs	.-36     	; 0x29a6 <__mulsf3+0x8>

000029ca <__mulsf3_pse>:
    29ca:	95 9f       	mul	r25, r21
    29cc:	c1 f3       	breq	.-16     	; 0x29be <__mulsf3+0x20>
    29ce:	95 0f       	add	r25, r21
    29d0:	50 e0       	ldi	r21, 0x00	; 0
    29d2:	55 1f       	adc	r21, r21
    29d4:	62 9f       	mul	r22, r18
    29d6:	f0 01       	movw	r30, r0
    29d8:	72 9f       	mul	r23, r18
    29da:	bb 27       	eor	r27, r27
    29dc:	f0 0d       	add	r31, r0
    29de:	b1 1d       	adc	r27, r1
    29e0:	63 9f       	mul	r22, r19
    29e2:	aa 27       	eor	r26, r26
    29e4:	f0 0d       	add	r31, r0
    29e6:	b1 1d       	adc	r27, r1
    29e8:	aa 1f       	adc	r26, r26
    29ea:	64 9f       	mul	r22, r20
    29ec:	66 27       	eor	r22, r22
    29ee:	b0 0d       	add	r27, r0
    29f0:	a1 1d       	adc	r26, r1
    29f2:	66 1f       	adc	r22, r22
    29f4:	82 9f       	mul	r24, r18
    29f6:	22 27       	eor	r18, r18
    29f8:	b0 0d       	add	r27, r0
    29fa:	a1 1d       	adc	r26, r1
    29fc:	62 1f       	adc	r22, r18
    29fe:	73 9f       	mul	r23, r19
    2a00:	b0 0d       	add	r27, r0
    2a02:	a1 1d       	adc	r26, r1
    2a04:	62 1f       	adc	r22, r18
    2a06:	83 9f       	mul	r24, r19
    2a08:	a0 0d       	add	r26, r0
    2a0a:	61 1d       	adc	r22, r1
    2a0c:	22 1f       	adc	r18, r18
    2a0e:	74 9f       	mul	r23, r20
    2a10:	33 27       	eor	r19, r19
    2a12:	a0 0d       	add	r26, r0
    2a14:	61 1d       	adc	r22, r1
    2a16:	23 1f       	adc	r18, r19
    2a18:	84 9f       	mul	r24, r20
    2a1a:	60 0d       	add	r22, r0
    2a1c:	21 1d       	adc	r18, r1
    2a1e:	82 2f       	mov	r24, r18
    2a20:	76 2f       	mov	r23, r22
    2a22:	6a 2f       	mov	r22, r26
    2a24:	11 24       	eor	r1, r1
    2a26:	9f 57       	subi	r25, 0x7F	; 127
    2a28:	50 40       	sbci	r21, 0x00	; 0
    2a2a:	9a f0       	brmi	.+38     	; 0x2a52 <__mulsf3_pse+0x88>
    2a2c:	f1 f0       	breq	.+60     	; 0x2a6a <__mulsf3_pse+0xa0>
    2a2e:	88 23       	and	r24, r24
    2a30:	4a f0       	brmi	.+18     	; 0x2a44 <__mulsf3_pse+0x7a>
    2a32:	ee 0f       	add	r30, r30
    2a34:	ff 1f       	adc	r31, r31
    2a36:	bb 1f       	adc	r27, r27
    2a38:	66 1f       	adc	r22, r22
    2a3a:	77 1f       	adc	r23, r23
    2a3c:	88 1f       	adc	r24, r24
    2a3e:	91 50       	subi	r25, 0x01	; 1
    2a40:	50 40       	sbci	r21, 0x00	; 0
    2a42:	a9 f7       	brne	.-22     	; 0x2a2e <__mulsf3_pse+0x64>
    2a44:	9e 3f       	cpi	r25, 0xFE	; 254
    2a46:	51 05       	cpc	r21, r1
    2a48:	80 f0       	brcs	.+32     	; 0x2a6a <__mulsf3_pse+0xa0>
    2a4a:	0c 94 79 14 	jmp	0x28f2	; 0x28f2 <__fp_inf>
    2a4e:	0c 94 c4 14 	jmp	0x2988	; 0x2988 <__fp_szero>
    2a52:	5f 3f       	cpi	r21, 0xFF	; 255
    2a54:	e4 f3       	brlt	.-8      	; 0x2a4e <__mulsf3_pse+0x84>
    2a56:	98 3e       	cpi	r25, 0xE8	; 232
    2a58:	d4 f3       	brlt	.-12     	; 0x2a4e <__mulsf3_pse+0x84>
    2a5a:	86 95       	lsr	r24
    2a5c:	77 95       	ror	r23
    2a5e:	67 95       	ror	r22
    2a60:	b7 95       	ror	r27
    2a62:	f7 95       	ror	r31
    2a64:	e7 95       	ror	r30
    2a66:	9f 5f       	subi	r25, 0xFF	; 255
    2a68:	c1 f7       	brne	.-16     	; 0x2a5a <__mulsf3_pse+0x90>
    2a6a:	fe 2b       	or	r31, r30
    2a6c:	88 0f       	add	r24, r24
    2a6e:	91 1d       	adc	r25, r1
    2a70:	96 95       	lsr	r25
    2a72:	87 95       	ror	r24
    2a74:	97 f9       	bld	r25, 7
    2a76:	08 95       	ret

00002a78 <__udivmodsi4>:
    2a78:	a1 e2       	ldi	r26, 0x21	; 33
    2a7a:	1a 2e       	mov	r1, r26
    2a7c:	aa 1b       	sub	r26, r26
    2a7e:	bb 1b       	sub	r27, r27
    2a80:	fd 01       	movw	r30, r26
    2a82:	0d c0       	rjmp	.+26     	; 0x2a9e <__udivmodsi4_ep>

00002a84 <__udivmodsi4_loop>:
    2a84:	aa 1f       	adc	r26, r26
    2a86:	bb 1f       	adc	r27, r27
    2a88:	ee 1f       	adc	r30, r30
    2a8a:	ff 1f       	adc	r31, r31
    2a8c:	a2 17       	cp	r26, r18
    2a8e:	b3 07       	cpc	r27, r19
    2a90:	e4 07       	cpc	r30, r20
    2a92:	f5 07       	cpc	r31, r21
    2a94:	20 f0       	brcs	.+8      	; 0x2a9e <__udivmodsi4_ep>
    2a96:	a2 1b       	sub	r26, r18
    2a98:	b3 0b       	sbc	r27, r19
    2a9a:	e4 0b       	sbc	r30, r20
    2a9c:	f5 0b       	sbc	r31, r21

00002a9e <__udivmodsi4_ep>:
    2a9e:	66 1f       	adc	r22, r22
    2aa0:	77 1f       	adc	r23, r23
    2aa2:	88 1f       	adc	r24, r24
    2aa4:	99 1f       	adc	r25, r25
    2aa6:	1a 94       	dec	r1
    2aa8:	69 f7       	brne	.-38     	; 0x2a84 <__udivmodsi4_loop>
    2aaa:	60 95       	com	r22
    2aac:	70 95       	com	r23
    2aae:	80 95       	com	r24
    2ab0:	90 95       	com	r25
    2ab2:	9b 01       	movw	r18, r22
    2ab4:	ac 01       	movw	r20, r24
    2ab6:	bd 01       	movw	r22, r26
    2ab8:	cf 01       	movw	r24, r30
    2aba:	08 95       	ret

00002abc <__tablejump2__>:
    2abc:	ee 0f       	add	r30, r30
    2abe:	ff 1f       	adc	r31, r31
    2ac0:	05 90       	lpm	r0, Z+
    2ac2:	f4 91       	lpm	r31, Z
    2ac4:	e0 2d       	mov	r30, r0
    2ac6:	09 94       	ijmp

00002ac8 <__umulhisi3>:
    2ac8:	a2 9f       	mul	r26, r18
    2aca:	b0 01       	movw	r22, r0
    2acc:	b3 9f       	mul	r27, r19
    2ace:	c0 01       	movw	r24, r0
    2ad0:	a3 9f       	mul	r26, r19
    2ad2:	70 0d       	add	r23, r0
    2ad4:	81 1d       	adc	r24, r1
    2ad6:	11 24       	eor	r1, r1
    2ad8:	91 1d       	adc	r25, r1
    2ada:	b2 9f       	mul	r27, r18
    2adc:	70 0d       	add	r23, r0
    2ade:	81 1d       	adc	r24, r1
    2ae0:	11 24       	eor	r1, r1
    2ae2:	91 1d       	adc	r25, r1
    2ae4:	08 95       	ret

00002ae6 <__umulsidi3>:
    2ae6:	e8 94       	clt

00002ae8 <__umulsidi3_helper>:
    2ae8:	df 93       	push	r29
    2aea:	cf 93       	push	r28
    2aec:	fc 01       	movw	r30, r24
    2aee:	db 01       	movw	r26, r22
    2af0:	0e 94 64 15 	call	0x2ac8	; 0x2ac8 <__umulhisi3>
    2af4:	7f 93       	push	r23
    2af6:	6f 93       	push	r22
    2af8:	e9 01       	movw	r28, r18
    2afa:	9a 01       	movw	r18, r20
    2afc:	ac 01       	movw	r20, r24
    2afe:	bf 93       	push	r27
    2b00:	af 93       	push	r26
    2b02:	3f 93       	push	r19
    2b04:	2f 93       	push	r18
    2b06:	df 01       	movw	r26, r30
    2b08:	0e 94 64 15 	call	0x2ac8	; 0x2ac8 <__umulhisi3>
    2b0c:	26 f4       	brtc	.+8      	; 0x2b16 <__umulsidi3_helper+0x2e>
    2b0e:	6c 1b       	sub	r22, r28
    2b10:	7d 0b       	sbc	r23, r29
    2b12:	82 0b       	sbc	r24, r18
    2b14:	93 0b       	sbc	r25, r19
    2b16:	9e 01       	movw	r18, r28
    2b18:	eb 01       	movw	r28, r22
    2b1a:	fc 01       	movw	r30, r24
    2b1c:	0e 94 bc 15 	call	0x2b78	; 0x2b78 <__muldi3_6>
    2b20:	af 91       	pop	r26
    2b22:	bf 91       	pop	r27
    2b24:	2f 91       	pop	r18
    2b26:	3f 91       	pop	r19
    2b28:	0e 94 bc 15 	call	0x2b78	; 0x2b78 <__muldi3_6>
    2b2c:	be 01       	movw	r22, r28
    2b2e:	cf 01       	movw	r24, r30
    2b30:	f9 01       	movw	r30, r18
    2b32:	2f 91       	pop	r18
    2b34:	3f 91       	pop	r19
    2b36:	cf 91       	pop	r28
    2b38:	df 91       	pop	r29
    2b3a:	08 95       	ret

00002b3c <__ashrdi3>:
    2b3c:	97 fb       	bst	r25, 7
    2b3e:	10 f8       	bld	r1, 0

00002b40 <__lshrdi3>:
    2b40:	16 94       	lsr	r1
    2b42:	00 08       	sbc	r0, r0
    2b44:	0f 93       	push	r16
    2b46:	08 30       	cpi	r16, 0x08	; 8
    2b48:	98 f0       	brcs	.+38     	; 0x2b70 <__lshrdi3+0x30>
    2b4a:	08 50       	subi	r16, 0x08	; 8
    2b4c:	23 2f       	mov	r18, r19
    2b4e:	34 2f       	mov	r19, r20
    2b50:	45 2f       	mov	r20, r21
    2b52:	56 2f       	mov	r21, r22
    2b54:	67 2f       	mov	r22, r23
    2b56:	78 2f       	mov	r23, r24
    2b58:	89 2f       	mov	r24, r25
    2b5a:	90 2d       	mov	r25, r0
    2b5c:	f4 cf       	rjmp	.-24     	; 0x2b46 <__lshrdi3+0x6>
    2b5e:	05 94       	asr	r0
    2b60:	97 95       	ror	r25
    2b62:	87 95       	ror	r24
    2b64:	77 95       	ror	r23
    2b66:	67 95       	ror	r22
    2b68:	57 95       	ror	r21
    2b6a:	47 95       	ror	r20
    2b6c:	37 95       	ror	r19
    2b6e:	27 95       	ror	r18
    2b70:	0a 95       	dec	r16
    2b72:	aa f7       	brpl	.-22     	; 0x2b5e <__lshrdi3+0x1e>
    2b74:	0f 91       	pop	r16
    2b76:	08 95       	ret

00002b78 <__muldi3_6>:
    2b78:	0e 94 64 15 	call	0x2ac8	; 0x2ac8 <__umulhisi3>
    2b7c:	46 0f       	add	r20, r22
    2b7e:	57 1f       	adc	r21, r23
    2b80:	c8 1f       	adc	r28, r24
    2b82:	d9 1f       	adc	r29, r25
    2b84:	08 f4       	brcc	.+2      	; 0x2b88 <__muldi3_6+0x10>
    2b86:	31 96       	adiw	r30, 0x01	; 1
    2b88:	08 95       	ret

00002b8a <_exit>:
    2b8a:	f8 94       	cli

00002b8c <__stop_program>:
    2b8c:	ff cf       	rjmp	.-2      	; 0x2b8c <__stop_program>
